
parping.elf:     file format elf32-littlearm

Sections:
Idx Name          Size      VMA       LMA       File off  Algn
  0 .init         00000018  00008000  00008000  00008000  2**2
                  CONTENTS, ALLOC, LOAD, READONLY, CODE
  1 .text         00002540  00008018  00008018  00008018  2**2
                  CONTENTS, ALLOC, LOAD, READONLY, CODE
  2 .fini         00000018  0000a558  0000a558  0000a558  2**2
                  CONTENTS, ALLOC, LOAD, READONLY, CODE
  3 .rodata       000000bb  0000a570  0000a570  0000a570  2**2
                  CONTENTS, ALLOC, LOAD, READONLY, DATA
  4 .eh_frame     00000004  0000a62c  0000a62c  0000a62c  2**2
                  CONTENTS, ALLOC, LOAD, READONLY, DATA
  5 .init_array   00000004  0001a630  0001a630  0000a630  2**2
                  CONTENTS, ALLOC, LOAD, DATA
  6 .fini_array   00000004  0001a634  0001a634  0000a634  2**2
                  CONTENTS, ALLOC, LOAD, DATA
  7 .data         00000078  0001a638  0001a638  0000a638  2**2
                  CONTENTS, ALLOC, LOAD, DATA
  8 .bss          0000002c  0001a6b0  0001a6b0  0000a6b0  2**2
                  ALLOC
  9 .stab         0000009c  00000000  00000000  0000a6b0  2**2
                  CONTENTS, READONLY, DEBUGGING
 10 .stabstr      0000014d  00000000  00000000  0000a74c  2**0
                  CONTENTS, READONLY, DEBUGGING
 11 .comment      0000007c  00000000  00000000  0000a899  2**0
                  CONTENTS, READONLY
 12 .debug_aranges 00000020  00000000  00000000  0000a915  2**0
                  CONTENTS, READONLY, DEBUGGING
 13 .debug_info   0000093e  00000000  00000000  0000a935  2**0
                  CONTENTS, READONLY, DEBUGGING
 14 .debug_abbrev 000001ba  00000000  00000000  0000b273  2**0
                  CONTENTS, READONLY, DEBUGGING
 15 .debug_line   00000136  00000000  00000000  0000b42d  2**0
                  CONTENTS, READONLY, DEBUGGING
 16 .debug_frame  00000a9c  00000000  00000000  0000b564  2**2
                  CONTENTS, READONLY, DEBUGGING
 17 .debug_str    0000054e  00000000  00000000  0000c000  2**0
                  CONTENTS, READONLY, DEBUGGING
 18 .ARM.attributes 0000002e  00000000  00000000  0000c54e  2**0
                  CONTENTS, READONLY

Disassembly of section .init:

00008000 <_init>:
    8000:	e1a0c00d 	mov	ip, sp
    8004:	e92ddff8 	push	{r3, r4, r5, r6, r7, r8, r9, sl, fp, ip, lr, pc}
    8008:	e24cb004 	sub	fp, ip, #4
    800c:	e24bd028 	sub	sp, fp, #40	; 0x28
    8010:	e89d6ff0 	ldm	sp, {r4, r5, r6, r7, r8, r9, sl, fp, sp, lr}
    8014:	e12fff1e 	bx	lr

Disassembly of section .text:

00008018 <__do_global_dtors_aux>:
    8018:	e92d4010 	push	{r4, lr}
    801c:	e59f4028 	ldr	r4, [pc, #40]	; 804c <__do_global_dtors_aux+0x34>
    8020:	e5d43000 	ldrb	r3, [r4]
    8024:	e3530000 	cmp	r3, #0
    8028:	1a000005 	bne	8044 <__do_global_dtors_aux+0x2c>
    802c:	e59f301c 	ldr	r3, [pc, #28]	; 8050 <__do_global_dtors_aux+0x38>
    8030:	e3530000 	cmp	r3, #0
    8034:	159f0018 	ldrne	r0, [pc, #24]	; 8054 <__do_global_dtors_aux+0x3c>
    8038:	11a00000 	movne	r0, r0
    803c:	e3a03001 	mov	r3, #1
    8040:	e5c43000 	strb	r3, [r4]
    8044:	e8bd4010 	pop	{r4, lr}
    8048:	e12fff1e 	bx	lr
    804c:	0001a6b0 	.word	0x0001a6b0
    8050:	00000000 	.word	0x00000000
    8054:	0000a62c 	.word	0x0000a62c

00008058 <frame_dummy>:
    8058:	e59f301c 	ldr	r3, [pc, #28]	; 807c <frame_dummy+0x24>
    805c:	e3530000 	cmp	r3, #0
    8060:	012fff1e 	bxeq	lr
    8064:	e92d4010 	push	{r4, lr}
    8068:	e59f1010 	ldr	r1, [pc, #16]	; 8080 <frame_dummy+0x28>
    806c:	e59f0010 	ldr	r0, [pc, #16]	; 8084 <frame_dummy+0x2c>
    8070:	e1a00000 	nop			; (mov r0, r0)
    8074:	e8bd4010 	pop	{r4, lr}
    8078:	e12fff1e 	bx	lr
    807c:	00000000 	.word	0x00000000
    8080:	0001a6b4 	.word	0x0001a6b4
    8084:	0000a62c 	.word	0x0000a62c

00008088 <check_number_error>:
int width = 50 ;
int length = 20;
int height = 20 ;


int check_number_error() {
    8088:	e52db004 	push	{fp}		; (str fp, [sp, #-4]!)
    808c:	e28db000 	add	fp, sp, #0
    8090:	e24dd00c 	sub	sp, sp, #12
	int cpt_error = 0;
    8094:	e3a03000 	mov	r3, #0
    8098:	e50b3008 	str	r3, [fp, #-8]

	if (width != 50){
    809c:	e59f3060 	ldr	r3, [pc, #96]	; 8104 <check_number_error+0x7c>
    80a0:	e5933000 	ldr	r3, [r3]
    80a4:	e3530032 	cmp	r3, #50	; 0x32
    80a8:	0a000002 	beq	80b8 <check_number_error+0x30>
		cpt_error += 1;
    80ac:	e51b3008 	ldr	r3, [fp, #-8]
    80b0:	e2833001 	add	r3, r3, #1
    80b4:	e50b3008 	str	r3, [fp, #-8]
	}

	if (length != 20){
    80b8:	e59f3048 	ldr	r3, [pc, #72]	; 8108 <check_number_error+0x80>
    80bc:	e5933000 	ldr	r3, [r3]
    80c0:	e3530014 	cmp	r3, #20
    80c4:	0a000002 	beq	80d4 <check_number_error+0x4c>
		cpt_error +=1;
    80c8:	e51b3008 	ldr	r3, [fp, #-8]
    80cc:	e2833001 	add	r3, r3, #1
    80d0:	e50b3008 	str	r3, [fp, #-8]
	}

	if (height != 20) {
    80d4:	e59f3030 	ldr	r3, [pc, #48]	; 810c <check_number_error+0x84>
    80d8:	e5933000 	ldr	r3, [r3]
    80dc:	e3530014 	cmp	r3, #20
    80e0:	0a000002 	beq	80f0 <check_number_error+0x68>
		cpt_error +=1;
    80e4:	e51b3008 	ldr	r3, [fp, #-8]
    80e8:	e2833001 	add	r3, r3, #1
    80ec:	e50b3008 	str	r3, [fp, #-8]
	}
	return cpt_error;
    80f0:	e51b3008 	ldr	r3, [fp, #-8]
}
    80f4:	e1a00003 	mov	r0, r3
    80f8:	e28bd000 	add	sp, fp, #0
    80fc:	e49db004 	pop	{fp}		; (ldr fp, [sp], #4)
    8100:	e12fff1e 	bx	lr
    8104:	0001a640 	.word	0x0001a640
    8108:	0001a644 	.word	0x0001a644
    810c:	0001a648 	.word	0x0001a648

00008110 <main>:

int main(int argc , char* argv []) {
    8110:	e92d4800 	push	{fp, lr}
    8114:	e28db004 	add	fp, sp, #4
    8118:	e24dd010 	sub	sp, sp, #16
    811c:	e50b0010 	str	r0, [fp, #-16]
    8120:	e50b1014 	str	r1, [fp, #-20]	; 0xffffffec
	int cpt =0;
    8124:	e3a03000 	mov	r3, #0
    8128:	e50b3008 	str	r3, [fp, #-8]
	cpt=check_number_error();
    812c:	ebffffd5 	bl	8088 <check_number_error>
    8130:	e50b0008 	str	r0, [fp, #-8]
	if (weight == 19){
    8134:	e59f3060 	ldr	r3, [pc, #96]	; 819c <main+0x8c>
    8138:	e5933000 	ldr	r3, [r3]
    813c:	e3530013 	cmp	r3, #19
    8140:	1a000008 	bne	8168 <main+0x58>
		if (cpt <= 1){
    8144:	e51b3008 	ldr	r3, [fp, #-8]
    8148:	e3530001 	cmp	r3, #1
    814c:	ca000002 	bgt	815c <main+0x4c>
			printf("categorie A");
    8150:	e59f0048 	ldr	r0, [pc, #72]	; 81a0 <main+0x90>
    8154:	eb000025 	bl	81f0 <iprintf>
    8158:	ea00000a 	b	8188 <main+0x78>
		}
		else {
			printf("categorie B");
    815c:	e59f0040 	ldr	r0, [pc, #64]	; 81a4 <main+0x94>
    8160:	eb000022 	bl	81f0 <iprintf>
    8164:	ea000007 	b	8188 <main+0x78>
		}
	}
	else {
		if (cpt == 0 ){
    8168:	e51b3008 	ldr	r3, [fp, #-8]
    816c:	e3530000 	cmp	r3, #0
    8170:	1a000002 	bne	8180 <main+0x70>
			printf("categorie B");
    8174:	e59f0028 	ldr	r0, [pc, #40]	; 81a4 <main+0x94>
    8178:	eb00001c 	bl	81f0 <iprintf>
    817c:	ea000001 	b	8188 <main+0x78>
		}
		else {
			printf("categorie C");
    8180:	e59f0020 	ldr	r0, [pc, #32]	; 81a8 <main+0x98>
    8184:	eb000019 	bl	81f0 <iprintf>
		}
	}
	return 0;
    8188:	e3a03000 	mov	r3, #0
}
    818c:	e1a00003 	mov	r0, r3
    8190:	e24bd004 	sub	sp, fp, #4
    8194:	e8bd4800 	pop	{fp, lr}
    8198:	e12fff1e 	bx	lr
    819c:	0001a63c 	.word	0x0001a63c
    81a0:	0000a570 	.word	0x0000a570
    81a4:	0000a57c 	.word	0x0000a57c
    81a8:	0000a588 	.word	0x0000a588

000081ac <_iprintf_r>:
    81ac:	e92d000e 	push	{r1, r2, r3}
    81b0:	e92d4017 	push	{r0, r1, r2, r4, lr}
    81b4:	e2504000 	subs	r4, r0, #0
    81b8:	0a000002 	beq	81c8 <_iprintf_r+0x1c>
    81bc:	e5943018 	ldr	r3, [r4, #24]
    81c0:	e3530000 	cmp	r3, #0
    81c4:	0b00005d 	bleq	8340 <__sinit>
    81c8:	e28d3018 	add	r3, sp, #24
    81cc:	e59d2014 	ldr	r2, [sp, #20]
    81d0:	e5941008 	ldr	r1, [r4, #8]
    81d4:	e1a00004 	mov	r0, r4
    81d8:	e58d3004 	str	r3, [sp, #4]
    81dc:	eb00018c 	bl	8814 <_vfiprintf_r>
    81e0:	e28dd00c 	add	sp, sp, #12
    81e4:	e8bd4010 	pop	{r4, lr}
    81e8:	e28dd00c 	add	sp, sp, #12
    81ec:	e12fff1e 	bx	lr

000081f0 <iprintf>:
    81f0:	e92d000f 	push	{r0, r1, r2, r3}
    81f4:	e59f3044 	ldr	r3, [pc, #68]	; 8240 <iprintf+0x50>
    81f8:	e92d4013 	push	{r0, r1, r4, lr}
    81fc:	e5934000 	ldr	r4, [r3]
    8200:	e3540000 	cmp	r4, #0
    8204:	0a000003 	beq	8218 <iprintf+0x28>
    8208:	e5943018 	ldr	r3, [r4, #24]
    820c:	e3530000 	cmp	r3, #0
    8210:	01a00004 	moveq	r0, r4
    8214:	0b000049 	bleq	8340 <__sinit>
    8218:	e28d3014 	add	r3, sp, #20
    821c:	e59d2010 	ldr	r2, [sp, #16]
    8220:	e5941008 	ldr	r1, [r4, #8]
    8224:	e1a00004 	mov	r0, r4
    8228:	e58d3004 	str	r3, [sp, #4]
    822c:	eb000178 	bl	8814 <_vfiprintf_r>
    8230:	e28dd008 	add	sp, sp, #8
    8234:	e8bd4010 	pop	{r4, lr}
    8238:	e28dd010 	add	sp, sp, #16
    823c:	e12fff1e 	bx	lr
    8240:	0001a64c 	.word	0x0001a64c

00008244 <__fp_unlock>:
    8244:	e3a00000 	mov	r0, #0
    8248:	e12fff1e 	bx	lr

0000824c <_cleanup_r>:
    824c:	e92d4010 	push	{r4, lr}
    8250:	e59f1008 	ldr	r1, [pc, #8]	; 8260 <_cleanup_r+0x14>
    8254:	eb0000ca 	bl	8584 <_fwalk_reent>
    8258:	e8bd4010 	pop	{r4, lr}
    825c:	e12fff1e 	bx	lr
    8260:	000096f0 	.word	0x000096f0

00008264 <std.isra.0>:
    8264:	e3a03000 	mov	r3, #0
    8268:	e92d4010 	push	{r4, lr}
    826c:	e1a04000 	mov	r4, r0
    8270:	e5803000 	str	r3, [r0]
    8274:	e5803004 	str	r3, [r0, #4]
    8278:	e5803008 	str	r3, [r0, #8]
    827c:	e1c010bc 	strh	r1, [r0, #12]
    8280:	e5803064 	str	r3, [r0, #100]	; 0x64
    8284:	e1c020be 	strh	r2, [r0, #14]
    8288:	e5803010 	str	r3, [r0, #16]
    828c:	e5803014 	str	r3, [r0, #20]
    8290:	e5803018 	str	r3, [r0, #24]
    8294:	e1a01003 	mov	r1, r3
    8298:	e3a02008 	mov	r2, #8
    829c:	e280005c 	add	r0, r0, #92	; 0x5c
    82a0:	eb0000d3 	bl	85f4 <memset>
    82a4:	e59f3024 	ldr	r3, [pc, #36]	; 82d0 <std.isra.0+0x6c>
    82a8:	e5843024 	str	r3, [r4, #36]	; 0x24
    82ac:	e59f3020 	ldr	r3, [pc, #32]	; 82d4 <std.isra.0+0x70>
    82b0:	e5843028 	str	r3, [r4, #40]	; 0x28
    82b4:	e59f301c 	ldr	r3, [pc, #28]	; 82d8 <std.isra.0+0x74>
    82b8:	e584302c 	str	r3, [r4, #44]	; 0x2c
    82bc:	e59f3018 	ldr	r3, [pc, #24]	; 82dc <std.isra.0+0x78>
    82c0:	e5844020 	str	r4, [r4, #32]
    82c4:	e5843030 	str	r3, [r4, #48]	; 0x30
    82c8:	e8bd4010 	pop	{r4, lr}
    82cc:	e12fff1e 	bx	lr
    82d0:	00009108 	.word	0x00009108
    82d4:	00009144 	.word	0x00009144
    82d8:	00009198 	.word	0x00009198
    82dc:	000091cc 	.word	0x000091cc

000082e0 <__fp_lock>:
    82e0:	e3a00000 	mov	r0, #0
    82e4:	e12fff1e 	bx	lr

000082e8 <__sfmoreglue>:
    82e8:	e3a02068 	mov	r2, #104	; 0x68
    82ec:	e92d4070 	push	{r4, r5, r6, lr}
    82f0:	e2415001 	sub	r5, r1, #1
    82f4:	e0050592 	mul	r5, r2, r5
    82f8:	e1a06001 	mov	r6, r1
    82fc:	e2851074 	add	r1, r5, #116	; 0x74
    8300:	eb0000c2 	bl	8610 <_malloc_r>
    8304:	e2504000 	subs	r4, r0, #0
    8308:	0a000005 	beq	8324 <__sfmoreglue+0x3c>
    830c:	e3a01000 	mov	r1, #0
    8310:	e284000c 	add	r0, r4, #12
    8314:	e8840042 	stm	r4, {r1, r6}
    8318:	e5840008 	str	r0, [r4, #8]
    831c:	e2852068 	add	r2, r5, #104	; 0x68
    8320:	eb0000b3 	bl	85f4 <memset>
    8324:	e1a00004 	mov	r0, r4
    8328:	e8bd4070 	pop	{r4, r5, r6, lr}
    832c:	e12fff1e 	bx	lr

00008330 <_cleanup>:
    8330:	e59f3004 	ldr	r3, [pc, #4]	; 833c <_cleanup+0xc>
    8334:	e5930000 	ldr	r0, [r3]
    8338:	eaffffc3 	b	824c <_cleanup_r>
    833c:	0000a5f4 	.word	0x0000a5f4

00008340 <__sinit>:
    8340:	e5903018 	ldr	r3, [r0, #24]
    8344:	e3530000 	cmp	r3, #0
    8348:	112fff1e 	bxne	lr
    834c:	e92d4010 	push	{r4, lr}
    8350:	e5803048 	str	r3, [r0, #72]	; 0x48
    8354:	e580304c 	str	r3, [r0, #76]	; 0x4c
    8358:	e5803050 	str	r3, [r0, #80]	; 0x50
    835c:	e59f3078 	ldr	r3, [pc, #120]	; 83dc <__sinit+0x9c>
    8360:	e5933000 	ldr	r3, [r3]
    8364:	e1500003 	cmp	r0, r3
    8368:	03a03001 	moveq	r3, #1
    836c:	e59f206c 	ldr	r2, [pc, #108]	; 83e0 <__sinit+0xa0>
    8370:	05803018 	streq	r3, [r0, #24]
    8374:	e5802028 	str	r2, [r0, #40]	; 0x28
    8378:	e1a04000 	mov	r4, r0
    837c:	eb000018 	bl	83e4 <__sfp>
    8380:	e5840004 	str	r0, [r4, #4]
    8384:	e1a00004 	mov	r0, r4
    8388:	eb000015 	bl	83e4 <__sfp>
    838c:	e5840008 	str	r0, [r4, #8]
    8390:	e1a00004 	mov	r0, r4
    8394:	eb000012 	bl	83e4 <__sfp>
    8398:	e3a02000 	mov	r2, #0
    839c:	e584000c 	str	r0, [r4, #12]
    83a0:	e3a01004 	mov	r1, #4
    83a4:	e5940004 	ldr	r0, [r4, #4]
    83a8:	ebffffad 	bl	8264 <std.isra.0>
    83ac:	e5940008 	ldr	r0, [r4, #8]
    83b0:	e3a02001 	mov	r2, #1
    83b4:	e3a01009 	mov	r1, #9
    83b8:	ebffffa9 	bl	8264 <std.isra.0>
    83bc:	e594000c 	ldr	r0, [r4, #12]
    83c0:	e3a02002 	mov	r2, #2
    83c4:	e3a01012 	mov	r1, #18
    83c8:	ebffffa5 	bl	8264 <std.isra.0>
    83cc:	e3a03001 	mov	r3, #1
    83d0:	e5843018 	str	r3, [r4, #24]
    83d4:	e8bd4010 	pop	{r4, lr}
    83d8:	e12fff1e 	bx	lr
    83dc:	0000a5f4 	.word	0x0000a5f4
    83e0:	0000824c 	.word	0x0000824c

000083e4 <__sfp>:
    83e4:	e59f30d4 	ldr	r3, [pc, #212]	; 84c0 <__sfp+0xdc>
    83e8:	e92d41f0 	push	{r4, r5, r6, r7, r8, lr}
    83ec:	e5936000 	ldr	r6, [r3]
    83f0:	e5963018 	ldr	r3, [r6, #24]
    83f4:	e3530000 	cmp	r3, #0
    83f8:	e1a07000 	mov	r7, r0
    83fc:	01a00006 	moveq	r0, r6
    8400:	0bffffce 	bleq	8340 <__sinit>
    8404:	e3a08004 	mov	r8, #4
    8408:	e2866048 	add	r6, r6, #72	; 0x48
    840c:	e9960018 	ldmib	r6, {r3, r4}
    8410:	e2533001 	subs	r3, r3, #1
    8414:	5a000004 	bpl	842c <__sfp+0x48>
    8418:	e5963000 	ldr	r3, [r6]
    841c:	e3530000 	cmp	r3, #0
    8420:	0a000006 	beq	8440 <__sfp+0x5c>
    8424:	e5966000 	ldr	r6, [r6]
    8428:	eafffff7 	b	840c <__sfp+0x28>
    842c:	e1d450fc 	ldrsh	r5, [r4, #12]
    8430:	e3550000 	cmp	r5, #0
    8434:	0a00000d 	beq	8470 <__sfp+0x8c>
    8438:	e2844068 	add	r4, r4, #104	; 0x68
    843c:	eafffff3 	b	8410 <__sfp+0x2c>
    8440:	e1a01008 	mov	r1, r8
    8444:	e1a00007 	mov	r0, r7
    8448:	ebffffa6 	bl	82e8 <__sfmoreglue>
    844c:	e3500000 	cmp	r0, #0
    8450:	e5860000 	str	r0, [r6]
    8454:	1afffff2 	bne	8424 <__sfp+0x40>
    8458:	e3a0300c 	mov	r3, #12
    845c:	e1a04000 	mov	r4, r0
    8460:	e5873000 	str	r3, [r7]
    8464:	e1a00004 	mov	r0, r4
    8468:	e8bd41f0 	pop	{r4, r5, r6, r7, r8, lr}
    846c:	e12fff1e 	bx	lr
    8470:	e3e03000 	mvn	r3, #0
    8474:	e1c430be 	strh	r3, [r4, #14]
    8478:	e3a03001 	mov	r3, #1
    847c:	e5845064 	str	r5, [r4, #100]	; 0x64
    8480:	e1c430bc 	strh	r3, [r4, #12]
    8484:	e5845000 	str	r5, [r4]
    8488:	e5845008 	str	r5, [r4, #8]
    848c:	e5845004 	str	r5, [r4, #4]
    8490:	e5845010 	str	r5, [r4, #16]
    8494:	e5845014 	str	r5, [r4, #20]
    8498:	e5845018 	str	r5, [r4, #24]
    849c:	e3a02008 	mov	r2, #8
    84a0:	e1a01005 	mov	r1, r5
    84a4:	e284005c 	add	r0, r4, #92	; 0x5c
    84a8:	eb000051 	bl	85f4 <memset>
    84ac:	e5845034 	str	r5, [r4, #52]	; 0x34
    84b0:	e5845038 	str	r5, [r4, #56]	; 0x38
    84b4:	e5845048 	str	r5, [r4, #72]	; 0x48
    84b8:	e584504c 	str	r5, [r4, #76]	; 0x4c
    84bc:	eaffffe8 	b	8464 <__sfp+0x80>
    84c0:	0000a5f4 	.word	0x0000a5f4

000084c4 <__sfp_lock_acquire>:
    84c4:	e12fff1e 	bx	lr

000084c8 <__sfp_lock_release>:
    84c8:	e12fff1e 	bx	lr

000084cc <__sinit_lock_acquire>:
    84cc:	e12fff1e 	bx	lr

000084d0 <__sinit_lock_release>:
    84d0:	e12fff1e 	bx	lr

000084d4 <__fp_lock_all>:
    84d4:	e92d4010 	push	{r4, lr}
    84d8:	e59f3010 	ldr	r3, [pc, #16]	; 84f0 <__fp_lock_all+0x1c>
    84dc:	e59f1010 	ldr	r1, [pc, #16]	; 84f4 <__fp_lock_all+0x20>
    84e0:	e5930000 	ldr	r0, [r3]
    84e4:	eb00000c 	bl	851c <_fwalk>
    84e8:	e8bd4010 	pop	{r4, lr}
    84ec:	e12fff1e 	bx	lr
    84f0:	0001a64c 	.word	0x0001a64c
    84f4:	000082e0 	.word	0x000082e0

000084f8 <__fp_unlock_all>:
    84f8:	e92d4010 	push	{r4, lr}
    84fc:	e59f3010 	ldr	r3, [pc, #16]	; 8514 <__fp_unlock_all+0x1c>
    8500:	e59f1010 	ldr	r1, [pc, #16]	; 8518 <__fp_unlock_all+0x20>
    8504:	e5930000 	ldr	r0, [r3]
    8508:	eb000003 	bl	851c <_fwalk>
    850c:	e8bd4010 	pop	{r4, lr}
    8510:	e12fff1e 	bx	lr
    8514:	0001a64c 	.word	0x0001a64c
    8518:	00008244 	.word	0x00008244

0000851c <_fwalk>:
    851c:	e92d41f0 	push	{r4, r5, r6, r7, r8, lr}
    8520:	e1a08001 	mov	r8, r1
    8524:	e3a06000 	mov	r6, #0
    8528:	e2804048 	add	r4, r0, #72	; 0x48
    852c:	e3540000 	cmp	r4, #0
    8530:	1a000002 	bne	8540 <_fwalk+0x24>
    8534:	e1a00006 	mov	r0, r6
    8538:	e8bd41f0 	pop	{r4, r5, r6, r7, r8, lr}
    853c:	e12fff1e 	bx	lr
    8540:	e5945008 	ldr	r5, [r4, #8]
    8544:	e5947004 	ldr	r7, [r4, #4]
    8548:	e2577001 	subs	r7, r7, #1
    854c:	45944000 	ldrmi	r4, [r4]
    8550:	4afffff5 	bmi	852c <_fwalk+0x10>
    8554:	e1d530bc 	ldrh	r3, [r5, #12]
    8558:	e3530001 	cmp	r3, #1
    855c:	9a000006 	bls	857c <_fwalk+0x60>
    8560:	e1d530fe 	ldrsh	r3, [r5, #14]
    8564:	e3730001 	cmn	r3, #1
    8568:	0a000003 	beq	857c <_fwalk+0x60>
    856c:	e1a00005 	mov	r0, r5
    8570:	e1a0e00f 	mov	lr, pc
    8574:	e12fff18 	bx	r8
    8578:	e1866000 	orr	r6, r6, r0
    857c:	e2855068 	add	r5, r5, #104	; 0x68
    8580:	eafffff0 	b	8548 <_fwalk+0x2c>

00008584 <_fwalk_reent>:
    8584:	e92d47f0 	push	{r4, r5, r6, r7, r8, r9, sl, lr}
    8588:	e1a08000 	mov	r8, r0
    858c:	e1a09001 	mov	r9, r1
    8590:	e3a06000 	mov	r6, #0
    8594:	e2804048 	add	r4, r0, #72	; 0x48
    8598:	e3540000 	cmp	r4, #0
    859c:	1a000002 	bne	85ac <_fwalk_reent+0x28>
    85a0:	e1a00006 	mov	r0, r6
    85a4:	e8bd47f0 	pop	{r4, r5, r6, r7, r8, r9, sl, lr}
    85a8:	e12fff1e 	bx	lr
    85ac:	e5945008 	ldr	r5, [r4, #8]
    85b0:	e5947004 	ldr	r7, [r4, #4]
    85b4:	e2577001 	subs	r7, r7, #1
    85b8:	45944000 	ldrmi	r4, [r4]
    85bc:	4afffff5 	bmi	8598 <_fwalk_reent+0x14>
    85c0:	e1d530bc 	ldrh	r3, [r5, #12]
    85c4:	e3530001 	cmp	r3, #1
    85c8:	9a000007 	bls	85ec <_fwalk_reent+0x68>
    85cc:	e1d530fe 	ldrsh	r3, [r5, #14]
    85d0:	e3730001 	cmn	r3, #1
    85d4:	0a000004 	beq	85ec <_fwalk_reent+0x68>
    85d8:	e1a01005 	mov	r1, r5
    85dc:	e1a00008 	mov	r0, r8
    85e0:	e1a0e00f 	mov	lr, pc
    85e4:	e12fff19 	bx	r9
    85e8:	e1866000 	orr	r6, r6, r0
    85ec:	e2855068 	add	r5, r5, #104	; 0x68
    85f0:	eaffffef 	b	85b4 <_fwalk_reent+0x30>

000085f4 <memset>:
    85f4:	e1a03000 	mov	r3, r0
    85f8:	e0802002 	add	r2, r0, r2
    85fc:	e1530002 	cmp	r3, r2
    8600:	1a000000 	bne	8608 <memset+0x14>
    8604:	e12fff1e 	bx	lr
    8608:	e4c31001 	strb	r1, [r3], #1
    860c:	eafffffa 	b	85fc <memset+0x8>

00008610 <_malloc_r>:
    8610:	e92d4070 	push	{r4, r5, r6, lr}
    8614:	e2815003 	add	r5, r1, #3
    8618:	e3c55003 	bic	r5, r5, #3
    861c:	e2855008 	add	r5, r5, #8
    8620:	e355000c 	cmp	r5, #12
    8624:	33a0500c 	movcc	r5, #12
    8628:	e1510005 	cmp	r1, r5
    862c:	93a01000 	movls	r1, #0
    8630:	83a01001 	movhi	r1, #1
    8634:	e1913fa5 	orrs	r3, r1, r5, lsr #31
    8638:	13a0300c 	movne	r3, #12
    863c:	e1a06000 	mov	r6, r0
    8640:	15803000 	strne	r3, [r0]
    8644:	1a000016 	bne	86a4 <_malloc_r+0x94>
    8648:	eb000600 	bl	9e50 <__malloc_lock>
    864c:	e59f30f0 	ldr	r3, [pc, #240]	; 8744 <_malloc_r+0x134>
    8650:	e5934000 	ldr	r4, [r3]
    8654:	e1a02003 	mov	r2, r3
    8658:	e1a01004 	mov	r1, r4
    865c:	e3510000 	cmp	r1, #0
    8660:	1a000012 	bne	86b0 <_malloc_r+0xa0>
    8664:	e59f40dc 	ldr	r4, [pc, #220]	; 8748 <_malloc_r+0x138>
    8668:	e5943000 	ldr	r3, [r4]
    866c:	e3530000 	cmp	r3, #0
    8670:	1a000002 	bne	8680 <_malloc_r+0x70>
    8674:	e1a00006 	mov	r0, r6
    8678:	eb000293 	bl	90cc <_sbrk_r>
    867c:	e5840000 	str	r0, [r4]
    8680:	e1a01005 	mov	r1, r5
    8684:	e1a00006 	mov	r0, r6
    8688:	eb00028f 	bl	90cc <_sbrk_r>
    868c:	e3700001 	cmn	r0, #1
    8690:	1a000020 	bne	8718 <_malloc_r+0x108>
    8694:	e3a0300c 	mov	r3, #12
    8698:	e1a00006 	mov	r0, r6
    869c:	e5863000 	str	r3, [r6]
    86a0:	eb0005eb 	bl	9e54 <__malloc_unlock>
    86a4:	e3a00000 	mov	r0, #0
    86a8:	e8bd4070 	pop	{r4, r5, r6, lr}
    86ac:	e12fff1e 	bx	lr
    86b0:	e5913000 	ldr	r3, [r1]
    86b4:	e0533005 	subs	r3, r3, r5
    86b8:	4a000013 	bmi	870c <_malloc_r+0xfc>
    86bc:	e353000b 	cmp	r3, #11
    86c0:	81a04001 	movhi	r4, r1
    86c4:	86843003 	strhi	r3, [r4], r3
    86c8:	87815003 	strhi	r5, [r1, r3]
    86cc:	8a000005 	bhi	86e8 <_malloc_r+0xd8>
    86d0:	e1540001 	cmp	r4, r1
    86d4:	15913004 	ldrne	r3, [r1, #4]
    86d8:	15843004 	strne	r3, [r4, #4]
    86dc:	11a04001 	movne	r4, r1
    86e0:	05943004 	ldreq	r3, [r4, #4]
    86e4:	05823000 	streq	r3, [r2]
    86e8:	e1a00006 	mov	r0, r6
    86ec:	eb0005d8 	bl	9e54 <__malloc_unlock>
    86f0:	e284000b 	add	r0, r4, #11
    86f4:	e2843004 	add	r3, r4, #4
    86f8:	e3c00007 	bic	r0, r0, #7
    86fc:	e0503003 	subs	r3, r0, r3
    8700:	12632000 	rsbne	r2, r3, #0
    8704:	17842003 	strne	r2, [r4, r3]
    8708:	eaffffe6 	b	86a8 <_malloc_r+0x98>
    870c:	e1a04001 	mov	r4, r1
    8710:	e5911004 	ldr	r1, [r1, #4]
    8714:	eaffffd0 	b	865c <_malloc_r+0x4c>
    8718:	e2804003 	add	r4, r0, #3
    871c:	e3c44003 	bic	r4, r4, #3
    8720:	e1500004 	cmp	r0, r4
    8724:	0a000004 	beq	873c <_malloc_r+0x12c>
    8728:	e0441000 	sub	r1, r4, r0
    872c:	e1a00006 	mov	r0, r6
    8730:	eb000265 	bl	90cc <_sbrk_r>
    8734:	e3700001 	cmn	r0, #1
    8738:	0affffd5 	beq	8694 <_malloc_r+0x84>
    873c:	e5845000 	str	r5, [r4]
    8740:	eaffffe8 	b	86e8 <_malloc_r+0xd8>
    8744:	0001a6cc 	.word	0x0001a6cc
    8748:	0001a6d0 	.word	0x0001a6d0

0000874c <__sfputc_r>:
    874c:	e5923008 	ldr	r3, [r2, #8]
    8750:	e2433001 	sub	r3, r3, #1
    8754:	e3530000 	cmp	r3, #0
    8758:	e5823008 	str	r3, [r2, #8]
    875c:	aa000005 	bge	8778 <__sfputc_r+0x2c>
    8760:	e592c018 	ldr	ip, [r2, #24]
    8764:	e153000c 	cmp	r3, ip
    8768:	ba000008 	blt	8790 <__sfputc_r+0x44>
    876c:	e20130ff 	and	r3, r1, #255	; 0xff
    8770:	e353000a 	cmp	r3, #10
    8774:	0a000005 	beq	8790 <__sfputc_r+0x44>
    8778:	e5923000 	ldr	r3, [r2]
    877c:	e2830001 	add	r0, r3, #1
    8780:	e5820000 	str	r0, [r2]
    8784:	e5c31000 	strb	r1, [r3]
    8788:	e20100ff 	and	r0, r1, #255	; 0xff
    878c:	e12fff1e 	bx	lr
    8790:	e92d4010 	push	{r4, lr}
    8794:	eb000291 	bl	91e0 <__swbuf_r>
    8798:	e8bd4010 	pop	{r4, lr}
    879c:	e12fff1e 	bx	lr

000087a0 <__sfputs_r>:
    87a0:	e92d41f0 	push	{r4, r5, r6, r7, r8, lr}
    87a4:	e1a06000 	mov	r6, r0
    87a8:	e1a07001 	mov	r7, r1
    87ac:	e1a04002 	mov	r4, r2
    87b0:	e0825003 	add	r5, r2, r3
    87b4:	e1540005 	cmp	r4, r5
    87b8:	03a00000 	moveq	r0, #0
    87bc:	0a000005 	beq	87d8 <__sfputs_r+0x38>
    87c0:	e1a02007 	mov	r2, r7
    87c4:	e4d41001 	ldrb	r1, [r4], #1
    87c8:	e1a00006 	mov	r0, r6
    87cc:	ebffffde 	bl	874c <__sfputc_r>
    87d0:	e3700001 	cmn	r0, #1
    87d4:	1afffff6 	bne	87b4 <__sfputs_r+0x14>
    87d8:	e8bd41f0 	pop	{r4, r5, r6, r7, r8, lr}
    87dc:	e12fff1e 	bx	lr

000087e0 <__sprint_r>:
    87e0:	e5923008 	ldr	r3, [r2, #8]
    87e4:	e3530000 	cmp	r3, #0
    87e8:	e92d4070 	push	{r4, r5, r6, lr}
    87ec:	05823004 	streq	r3, [r2, #4]
    87f0:	e1a04002 	mov	r4, r2
    87f4:	01a00003 	moveq	r0, r3
    87f8:	0a000003 	beq	880c <__sprint_r+0x2c>
    87fc:	e3a05000 	mov	r5, #0
    8800:	eb0003ed 	bl	97bc <__sfvwrite_r>
    8804:	e5845008 	str	r5, [r4, #8]
    8808:	e5845004 	str	r5, [r4, #4]
    880c:	e8bd4070 	pop	{r4, r5, r6, lr}
    8810:	e12fff1e 	bx	lr

00008814 <_vfiprintf_r>:
    8814:	e92d4ff0 	push	{r4, r5, r6, r7, r8, r9, sl, fp, lr}
    8818:	e2506000 	subs	r6, r0, #0
    881c:	e24dd074 	sub	sp, sp, #116	; 0x74
    8820:	e1a04001 	mov	r4, r1
    8824:	e1a08002 	mov	r8, r2
    8828:	e58d300c 	str	r3, [sp, #12]
    882c:	0a000002 	beq	883c <_vfiprintf_r+0x28>
    8830:	e5963018 	ldr	r3, [r6, #24]
    8834:	e3530000 	cmp	r3, #0
    8838:	0bfffec0 	bleq	8340 <__sinit>
    883c:	e59f3318 	ldr	r3, [pc, #792]	; 8b5c <_vfiprintf_r+0x348>
    8840:	e1540003 	cmp	r4, r3
    8844:	05964004 	ldreq	r4, [r6, #4]
    8848:	0a000006 	beq	8868 <_vfiprintf_r+0x54>
    884c:	e59f330c 	ldr	r3, [pc, #780]	; 8b60 <_vfiprintf_r+0x34c>
    8850:	e1540003 	cmp	r4, r3
    8854:	05964008 	ldreq	r4, [r6, #8]
    8858:	0a000002 	beq	8868 <_vfiprintf_r+0x54>
    885c:	e59f3300 	ldr	r3, [pc, #768]	; 8b64 <_vfiprintf_r+0x350>
    8860:	e1540003 	cmp	r4, r3
    8864:	0596400c 	ldreq	r4, [r6, #12]
    8868:	e1d430bc 	ldrh	r3, [r4, #12]
    886c:	e3130008 	tst	r3, #8
    8870:	0a000044 	beq	8988 <_vfiprintf_r+0x174>
    8874:	e5943010 	ldr	r3, [r4, #16]
    8878:	e3530000 	cmp	r3, #0
    887c:	0a000041 	beq	8988 <_vfiprintf_r+0x174>
    8880:	e3a03000 	mov	r3, #0
    8884:	e58d3024 	str	r3, [sp, #36]	; 0x24
    8888:	e3a03020 	mov	r3, #32
    888c:	e5cd3029 	strb	r3, [sp, #41]	; 0x29
    8890:	e3a03030 	mov	r3, #48	; 0x30
    8894:	e5cd302a 	strb	r3, [sp, #42]	; 0x2a
    8898:	e1a09008 	mov	r9, r8
    889c:	e1a05009 	mov	r5, r9
    88a0:	e4d57001 	ldrb	r7, [r5], #1
    88a4:	e3570000 	cmp	r7, #0
    88a8:	13570025 	cmpne	r7, #37	; 0x25
    88ac:	13a07001 	movne	r7, #1
    88b0:	03a07000 	moveq	r7, #0
    88b4:	1a00003c 	bne	89ac <_vfiprintf_r+0x198>
    88b8:	e059b008 	subs	fp, r9, r8
    88bc:	0a000009 	beq	88e8 <_vfiprintf_r+0xd4>
    88c0:	e1a0300b 	mov	r3, fp
    88c4:	e1a02008 	mov	r2, r8
    88c8:	e1a01004 	mov	r1, r4
    88cc:	e1a00006 	mov	r0, r6
    88d0:	ebffffb2 	bl	87a0 <__sfputs_r>
    88d4:	e3700001 	cmn	r0, #1
    88d8:	0a000092 	beq	8b28 <_vfiprintf_r+0x314>
    88dc:	e59d3024 	ldr	r3, [sp, #36]	; 0x24
    88e0:	e083b00b 	add	fp, r3, fp
    88e4:	e58db024 	str	fp, [sp, #36]	; 0x24
    88e8:	e5d93000 	ldrb	r3, [r9]
    88ec:	e3530000 	cmp	r3, #0
    88f0:	0a00008c 	beq	8b28 <_vfiprintf_r+0x314>
    88f4:	e3a03000 	mov	r3, #0
    88f8:	e3e02000 	mvn	r2, #0
    88fc:	e3a08005 	mov	r8, #5
    8900:	e58d3010 	str	r3, [sp, #16]
    8904:	e58d301c 	str	r3, [sp, #28]
    8908:	e58d2014 	str	r2, [sp, #20]
    890c:	e58d3018 	str	r3, [sp, #24]
    8910:	e5cd3053 	strb	r3, [sp, #83]	; 0x53
    8914:	e58d3068 	str	r3, [sp, #104]	; 0x68
    8918:	e1a02008 	mov	r2, r8
    891c:	e5d51000 	ldrb	r1, [r5]
    8920:	e59f0240 	ldr	r0, [pc, #576]	; 8b68 <_vfiprintf_r+0x354>
    8924:	eb000520 	bl	9dac <memchr>
    8928:	e3500000 	cmp	r0, #0
    892c:	e2859001 	add	r9, r5, #1
    8930:	e59d3010 	ldr	r3, [sp, #16]
    8934:	1a00001e 	bne	89b4 <_vfiprintf_r+0x1a0>
    8938:	e3130010 	tst	r3, #16
    893c:	13a02020 	movne	r2, #32
    8940:	15cd2053 	strbne	r2, [sp, #83]	; 0x53
    8944:	e3130008 	tst	r3, #8
    8948:	13a0202b 	movne	r2, #43	; 0x2b
    894c:	15cd2053 	strbne	r2, [sp, #83]	; 0x53
    8950:	e5d52000 	ldrb	r2, [r5]
    8954:	e352002a 	cmp	r2, #42	; 0x2a
    8958:	159d201c 	ldrne	r2, [sp, #28]
    895c:	11a01007 	movne	r1, r7
    8960:	13a0000a 	movne	r0, #10
    8964:	1a000032 	bne	8a34 <_vfiprintf_r+0x220>
    8968:	e59d200c 	ldr	r2, [sp, #12]
    896c:	e2821004 	add	r1, r2, #4
    8970:	e5922000 	ldr	r2, [r2]
    8974:	e3520000 	cmp	r2, #0
    8978:	e58d100c 	str	r1, [sp, #12]
    897c:	ba000013 	blt	89d0 <_vfiprintf_r+0x1bc>
    8980:	e58d201c 	str	r2, [sp, #28]
    8984:	ea000015 	b	89e0 <_vfiprintf_r+0x1cc>
    8988:	e1a01004 	mov	r1, r4
    898c:	e1a00006 	mov	r0, r6
    8990:	eb000274 	bl	9368 <__swsetup_r>
    8994:	e3500000 	cmp	r0, #0
    8998:	0affffb8 	beq	8880 <_vfiprintf_r+0x6c>
    899c:	e3e00000 	mvn	r0, #0
    89a0:	e28dd074 	add	sp, sp, #116	; 0x74
    89a4:	e8bd4ff0 	pop	{r4, r5, r6, r7, r8, r9, sl, fp, lr}
    89a8:	e12fff1e 	bx	lr
    89ac:	e1a09005 	mov	r9, r5
    89b0:	eaffffb9 	b	889c <_vfiprintf_r+0x88>
    89b4:	e59f21ac 	ldr	r2, [pc, #428]	; 8b68 <_vfiprintf_r+0x354>
    89b8:	e0400002 	sub	r0, r0, r2
    89bc:	e3a02001 	mov	r2, #1
    89c0:	e1833012 	orr	r3, r3, r2, lsl r0
    89c4:	e58d3010 	str	r3, [sp, #16]
    89c8:	e1a05009 	mov	r5, r9
    89cc:	eaffffd1 	b	8918 <_vfiprintf_r+0x104>
    89d0:	e2622000 	rsb	r2, r2, #0
    89d4:	e3833002 	orr	r3, r3, #2
    89d8:	e58d201c 	str	r2, [sp, #28]
    89dc:	e58d3010 	str	r3, [sp, #16]
    89e0:	e5d93000 	ldrb	r3, [r9]
    89e4:	e353002e 	cmp	r3, #46	; 0x2e
    89e8:	1a000024 	bne	8a80 <_vfiprintf_r+0x26c>
    89ec:	e5d93001 	ldrb	r3, [r9, #1]
    89f0:	e353002a 	cmp	r3, #42	; 0x2a
    89f4:	13a03000 	movne	r3, #0
    89f8:	e2891001 	add	r1, r9, #1
    89fc:	158d3014 	strne	r3, [sp, #20]
    8a00:	13a0000a 	movne	r0, #10
    8a04:	1a000015 	bne	8a60 <_vfiprintf_r+0x24c>
    8a08:	e59d300c 	ldr	r3, [sp, #12]
    8a0c:	e2832004 	add	r2, r3, #4
    8a10:	e5933000 	ldr	r3, [r3]
    8a14:	e3530000 	cmp	r3, #0
    8a18:	b3e03000 	mvnlt	r3, #0
    8a1c:	e58d200c 	str	r2, [sp, #12]
    8a20:	e2899002 	add	r9, r9, #2
    8a24:	e58d3014 	str	r3, [sp, #20]
    8a28:	ea000014 	b	8a80 <_vfiprintf_r+0x26c>
    8a2c:	e3a01001 	mov	r1, #1
    8a30:	e0223290 	mla	r2, r0, r2, r3
    8a34:	e1a09005 	mov	r9, r5
    8a38:	e5d93000 	ldrb	r3, [r9]
    8a3c:	e2433030 	sub	r3, r3, #48	; 0x30
    8a40:	e3530009 	cmp	r3, #9
    8a44:	e2855001 	add	r5, r5, #1
    8a48:	9afffff7 	bls	8a2c <_vfiprintf_r+0x218>
    8a4c:	e3510000 	cmp	r1, #0
    8a50:	0affffe2 	beq	89e0 <_vfiprintf_r+0x1cc>
    8a54:	eaffffc9 	b	8980 <_vfiprintf_r+0x16c>
    8a58:	e3a07001 	mov	r7, #1
    8a5c:	e0232390 	mla	r3, r0, r3, r2
    8a60:	e1a09001 	mov	r9, r1
    8a64:	e5d92000 	ldrb	r2, [r9]
    8a68:	e2422030 	sub	r2, r2, #48	; 0x30
    8a6c:	e3520009 	cmp	r2, #9
    8a70:	e2811001 	add	r1, r1, #1
    8a74:	9afffff7 	bls	8a58 <_vfiprintf_r+0x244>
    8a78:	e3570000 	cmp	r7, #0
    8a7c:	1affffe8 	bne	8a24 <_vfiprintf_r+0x210>
    8a80:	e59f50e4 	ldr	r5, [pc, #228]	; 8b6c <_vfiprintf_r+0x358>
    8a84:	e3a02003 	mov	r2, #3
    8a88:	e5d91000 	ldrb	r1, [r9]
    8a8c:	e1a00005 	mov	r0, r5
    8a90:	eb0004c5 	bl	9dac <memchr>
    8a94:	e3500000 	cmp	r0, #0
    8a98:	13a02040 	movne	r2, #64	; 0x40
    8a9c:	10403005 	subne	r3, r0, r5
    8aa0:	159d0010 	ldrne	r0, [sp, #16]
    8aa4:	12899001 	addne	r9, r9, #1
    8aa8:	11800312 	orrne	r0, r0, r2, lsl r3
    8aac:	e5d91000 	ldrb	r1, [r9]
    8ab0:	158d0010 	strne	r0, [sp, #16]
    8ab4:	e3a02006 	mov	r2, #6
    8ab8:	e59f00b0 	ldr	r0, [pc, #176]	; 8b70 <_vfiprintf_r+0x35c>
    8abc:	e5cd1028 	strb	r1, [sp, #40]	; 0x28
    8ac0:	eb0004b9 	bl	9dac <memchr>
    8ac4:	e3500000 	cmp	r0, #0
    8ac8:	e2898001 	add	r8, r9, #1
    8acc:	0a00001a 	beq	8b3c <_vfiprintf_r+0x328>
    8ad0:	e59f309c 	ldr	r3, [pc, #156]	; 8b74 <_vfiprintf_r+0x360>
    8ad4:	e3530000 	cmp	r3, #0
    8ad8:	1a000008 	bne	8b00 <_vfiprintf_r+0x2ec>
    8adc:	e59d300c 	ldr	r3, [sp, #12]
    8ae0:	e2833007 	add	r3, r3, #7
    8ae4:	e3c33007 	bic	r3, r3, #7
    8ae8:	e2833008 	add	r3, r3, #8
    8aec:	e58d300c 	str	r3, [sp, #12]
    8af0:	e59d3024 	ldr	r3, [sp, #36]	; 0x24
    8af4:	e083300a 	add	r3, r3, sl
    8af8:	e58d3024 	str	r3, [sp, #36]	; 0x24
    8afc:	eaffff65 	b	8898 <_vfiprintf_r+0x84>
    8b00:	e28d300c 	add	r3, sp, #12
    8b04:	e58d3000 	str	r3, [sp]
    8b08:	e1a02004 	mov	r2, r4
    8b0c:	e59f3064 	ldr	r3, [pc, #100]	; 8b78 <_vfiprintf_r+0x364>
    8b10:	e28d1010 	add	r1, sp, #16
    8b14:	e1a00006 	mov	r0, r6
    8b18:	e1a00000 	nop			; (mov r0, r0)
    8b1c:	e3700001 	cmn	r0, #1
    8b20:	e1a0a000 	mov	sl, r0
    8b24:	1afffff1 	bne	8af0 <_vfiprintf_r+0x2dc>
    8b28:	e1d430bc 	ldrh	r3, [r4, #12]
    8b2c:	e3130040 	tst	r3, #64	; 0x40
    8b30:	1affff99 	bne	899c <_vfiprintf_r+0x188>
    8b34:	e59d0024 	ldr	r0, [sp, #36]	; 0x24
    8b38:	eaffff98 	b	89a0 <_vfiprintf_r+0x18c>
    8b3c:	e28d300c 	add	r3, sp, #12
    8b40:	e58d3000 	str	r3, [sp]
    8b44:	e1a02004 	mov	r2, r4
    8b48:	e59f3028 	ldr	r3, [pc, #40]	; 8b78 <_vfiprintf_r+0x364>
    8b4c:	e28d1010 	add	r1, sp, #16
    8b50:	e1a00006 	mov	r0, r6
    8b54:	eb00006e 	bl	8d14 <_printf_i>
    8b58:	eaffffef 	b	8b1c <_vfiprintf_r+0x308>
    8b5c:	0000a5b4 	.word	0x0000a5b4
    8b60:	0000a5d4 	.word	0x0000a5d4
    8b64:	0000a594 	.word	0x0000a594
    8b68:	0000a5f8 	.word	0x0000a5f8
    8b6c:	0000a5fe 	.word	0x0000a5fe
    8b70:	0000a602 	.word	0x0000a602
    8b74:	00000000 	.word	0x00000000
    8b78:	000087a0 	.word	0x000087a0

00008b7c <vfiprintf>:
    8b7c:	e1a03002 	mov	r3, r2
    8b80:	e1a02001 	mov	r2, r1
    8b84:	e1a01000 	mov	r1, r0
    8b88:	e59f0004 	ldr	r0, [pc, #4]	; 8b94 <vfiprintf+0x18>
    8b8c:	e5900000 	ldr	r0, [r0]
    8b90:	eaffff1f 	b	8814 <_vfiprintf_r>
    8b94:	0001a64c 	.word	0x0001a64c

00008b98 <_printf_common>:
    8b98:	e92d4ff8 	push	{r3, r4, r5, r6, r7, r8, r9, sl, fp, lr}
    8b9c:	e1a09002 	mov	r9, r2
    8ba0:	e1a07003 	mov	r7, r3
    8ba4:	e5912008 	ldr	r2, [r1, #8]
    8ba8:	e5913010 	ldr	r3, [r1, #16]
    8bac:	e1530002 	cmp	r3, r2
    8bb0:	b1a03002 	movlt	r3, r2
    8bb4:	e5893000 	str	r3, [r9]
    8bb8:	e5d12043 	ldrb	r2, [r1, #67]	; 0x43
    8bbc:	e3520000 	cmp	r2, #0
    8bc0:	12833001 	addne	r3, r3, #1
    8bc4:	15893000 	strne	r3, [r9]
    8bc8:	e5913000 	ldr	r3, [r1]
    8bcc:	e3130020 	tst	r3, #32
    8bd0:	15993000 	ldrne	r3, [r9]
    8bd4:	12833002 	addne	r3, r3, #2
    8bd8:	15893000 	strne	r3, [r9]
    8bdc:	e5915000 	ldr	r5, [r1]
    8be0:	e2155006 	ands	r5, r5, #6
    8be4:	e1a06000 	mov	r6, r0
    8be8:	e1a04001 	mov	r4, r1
    8bec:	e59d8028 	ldr	r8, [sp, #40]	; 0x28
    8bf0:	0281a019 	addeq	sl, r1, #25
    8bf4:	03a0b001 	moveq	fp, #1
    8bf8:	0a000022 	beq	8c88 <_printf_common+0xf0>
    8bfc:	e5d43043 	ldrb	r3, [r4, #67]	; 0x43
    8c00:	e5942000 	ldr	r2, [r4]
    8c04:	e2933000 	adds	r3, r3, #0
    8c08:	13a03001 	movne	r3, #1
    8c0c:	e3120020 	tst	r2, #32
    8c10:	1a00002c 	bne	8cc8 <_printf_common+0x130>
    8c14:	e2842043 	add	r2, r4, #67	; 0x43
    8c18:	e1a01007 	mov	r1, r7
    8c1c:	e1a00006 	mov	r0, r6
    8c20:	e1a0e00f 	mov	lr, pc
    8c24:	e12fff18 	bx	r8
    8c28:	e3700001 	cmn	r0, #1
    8c2c:	0a000022 	beq	8cbc <_printf_common+0x124>
    8c30:	e5993000 	ldr	r3, [r9]
    8c34:	e594500c 	ldr	r5, [r4, #12]
    8c38:	e0455003 	sub	r5, r5, r3
    8c3c:	e5943000 	ldr	r3, [r4]
    8c40:	e2033006 	and	r3, r3, #6
    8c44:	e2533004 	subs	r3, r3, #4
    8c48:	13a03001 	movne	r3, #1
    8c4c:	e1933fa5 	orrs	r3, r3, r5, lsr #31
    8c50:	13a05000 	movne	r5, #0
    8c54:	e3a09000 	mov	r9, #0
    8c58:	e3a0a001 	mov	sl, #1
    8c5c:	e5943008 	ldr	r3, [r4, #8]
    8c60:	e5942010 	ldr	r2, [r4, #16]
    8c64:	e1530002 	cmp	r3, r2
    8c68:	c0433002 	subgt	r3, r3, r2
    8c6c:	c0855003 	addgt	r5, r5, r3
    8c70:	e284401a 	add	r4, r4, #26
    8c74:	e1550009 	cmp	r5, r9
    8c78:	1a00001b 	bne	8cec <_printf_common+0x154>
    8c7c:	e3a00000 	mov	r0, #0
    8c80:	ea00000e 	b	8cc0 <_printf_common+0x128>
    8c84:	e2855001 	add	r5, r5, #1
    8c88:	e594300c 	ldr	r3, [r4, #12]
    8c8c:	e5992000 	ldr	r2, [r9]
    8c90:	e0433002 	sub	r3, r3, r2
    8c94:	e1550003 	cmp	r5, r3
    8c98:	aaffffd7 	bge	8bfc <_printf_common+0x64>
    8c9c:	e1a0300b 	mov	r3, fp
    8ca0:	e1a0200a 	mov	r2, sl
    8ca4:	e1a01007 	mov	r1, r7
    8ca8:	e1a00006 	mov	r0, r6
    8cac:	e1a0e00f 	mov	lr, pc
    8cb0:	e12fff18 	bx	r8
    8cb4:	e3700001 	cmn	r0, #1
    8cb8:	1afffff1 	bne	8c84 <_printf_common+0xec>
    8cbc:	e3e00000 	mvn	r0, #0
    8cc0:	e8bd4ff8 	pop	{r3, r4, r5, r6, r7, r8, r9, sl, fp, lr}
    8cc4:	e12fff1e 	bx	lr
    8cc8:	e3a00030 	mov	r0, #48	; 0x30
    8ccc:	e0841003 	add	r1, r4, r3
    8cd0:	e5c10043 	strb	r0, [r1, #67]	; 0x43
    8cd4:	e2832001 	add	r2, r3, #1
    8cd8:	e5d41045 	ldrb	r1, [r4, #69]	; 0x45
    8cdc:	e0842002 	add	r2, r4, r2
    8ce0:	e2833002 	add	r3, r3, #2
    8ce4:	e5c21043 	strb	r1, [r2, #67]	; 0x43
    8ce8:	eaffffc9 	b	8c14 <_printf_common+0x7c>
    8cec:	e1a0300a 	mov	r3, sl
    8cf0:	e1a02004 	mov	r2, r4
    8cf4:	e1a01007 	mov	r1, r7
    8cf8:	e1a00006 	mov	r0, r6
    8cfc:	e1a0e00f 	mov	lr, pc
    8d00:	e12fff18 	bx	r8
    8d04:	e3700001 	cmn	r0, #1
    8d08:	0affffeb 	beq	8cbc <_printf_common+0x124>
    8d0c:	e2899001 	add	r9, r9, #1
    8d10:	eaffffd7 	b	8c74 <_printf_common+0xdc>

00008d14 <_printf_i>:
    8d14:	e92d4ff0 	push	{r4, r5, r6, r7, r8, r9, sl, fp, lr}
    8d18:	e1a04001 	mov	r4, r1
    8d1c:	e281b043 	add	fp, r1, #67	; 0x43
    8d20:	e5d11018 	ldrb	r1, [r1, #24]
    8d24:	e24dd01c 	sub	sp, sp, #28
    8d28:	e351006e 	cmp	r1, #110	; 0x6e
    8d2c:	e1a09003 	mov	r9, r3
    8d30:	e1a07000 	mov	r7, r0
    8d34:	e1a08002 	mov	r8, r2
    8d38:	e59d3040 	ldr	r3, [sp, #64]	; 0x40
    8d3c:	0a000073 	beq	8f10 <_printf_i+0x1fc>
    8d40:	8a000031 	bhi	8e0c <_printf_i+0xf8>
    8d44:	e3510063 	cmp	r1, #99	; 0x63
    8d48:	0a000049 	beq	8e74 <_printf_i+0x160>
    8d4c:	8a000008 	bhi	8d74 <_printf_i+0x60>
    8d50:	e3510000 	cmp	r1, #0
    8d54:	0a00007c 	beq	8f4c <_printf_i+0x238>
    8d58:	e3510058 	cmp	r1, #88	; 0x58
    8d5c:	05c41045 	strbeq	r1, [r4, #69]	; 0x45
    8d60:	059fa35c 	ldreq	sl, [pc, #860]	; 90c4 <_printf_i+0x3b0>
    8d64:	0a000035 	beq	8e40 <_printf_i+0x12c>
    8d68:	e2846042 	add	r6, r4, #66	; 0x42
    8d6c:	e5c41042 	strb	r1, [r4, #66]	; 0x42
    8d70:	ea000045 	b	8e8c <_printf_i+0x178>
    8d74:	e3510064 	cmp	r1, #100	; 0x64
    8d78:	0a000001 	beq	8d84 <_printf_i+0x70>
    8d7c:	e3510069 	cmp	r1, #105	; 0x69
    8d80:	1afffff8 	bne	8d68 <_printf_i+0x54>
    8d84:	e5941000 	ldr	r1, [r4]
    8d88:	e5932000 	ldr	r2, [r3]
    8d8c:	e3110080 	tst	r1, #128	; 0x80
    8d90:	12821004 	addne	r1, r2, #4
    8d94:	15831000 	strne	r1, [r3]
    8d98:	1a000004 	bne	8db0 <_printf_i+0x9c>
    8d9c:	e3110040 	tst	r1, #64	; 0x40
    8da0:	e2821004 	add	r1, r2, #4
    8da4:	e5831000 	str	r1, [r3]
    8da8:	11d230f0 	ldrshne	r3, [r2]
    8dac:	1a000000 	bne	8db4 <_printf_i+0xa0>
    8db0:	e5923000 	ldr	r3, [r2]
    8db4:	e3530000 	cmp	r3, #0
    8db8:	b3a0202d 	movlt	r2, #45	; 0x2d
    8dbc:	e3a0500a 	mov	r5, #10
    8dc0:	b5c42043 	strblt	r2, [r4, #67]	; 0x43
    8dc4:	e59fa2f8 	ldr	sl, [pc, #760]	; 90c4 <_printf_i+0x3b0>
    8dc8:	b2633000 	rsblt	r3, r3, #0
    8dcc:	e5942004 	ldr	r2, [r4, #4]
    8dd0:	e3520000 	cmp	r2, #0
    8dd4:	e5842008 	str	r2, [r4, #8]
    8dd8:	ba000091 	blt	9024 <_printf_i+0x310>
    8ddc:	e5941000 	ldr	r1, [r4]
    8de0:	e3530000 	cmp	r3, #0
    8de4:	e3c11004 	bic	r1, r1, #4
    8de8:	e5841000 	str	r1, [r4]
    8dec:	1a00008e 	bne	902c <_printf_i+0x318>
    8df0:	e3520000 	cmp	r2, #0
    8df4:	01a0600b 	moveq	r6, fp
    8df8:	0a000098 	beq	9060 <_printf_i+0x34c>
    8dfc:	e5da3000 	ldrb	r3, [sl]
    8e00:	e2846042 	add	r6, r4, #66	; 0x42
    8e04:	e5c43042 	strb	r3, [r4, #66]	; 0x42
    8e08:	ea000094 	b	9060 <_printf_i+0x34c>
    8e0c:	e3510073 	cmp	r1, #115	; 0x73
    8e10:	0a000051 	beq	8f5c <_printf_i+0x248>
    8e14:	8a000011 	bhi	8e60 <_printf_i+0x14c>
    8e18:	e351006f 	cmp	r1, #111	; 0x6f
    8e1c:	0a00001c 	beq	8e94 <_printf_i+0x180>
    8e20:	e3510070 	cmp	r1, #112	; 0x70
    8e24:	05942000 	ldreq	r2, [r4]
    8e28:	03822020 	orreq	r2, r2, #32
    8e2c:	05842000 	streq	r2, [r4]
    8e30:	1affffcc 	bne	8d68 <_printf_i+0x54>
    8e34:	e3a02078 	mov	r2, #120	; 0x78
    8e38:	e59fa288 	ldr	sl, [pc, #648]	; 90c8 <_printf_i+0x3b4>
    8e3c:	e5c42045 	strb	r2, [r4, #69]	; 0x45
    8e40:	e5942000 	ldr	r2, [r4]
    8e44:	e5931000 	ldr	r1, [r3]
    8e48:	e3120080 	tst	r2, #128	; 0x80
    8e4c:	e2810004 	add	r0, r1, #4
    8e50:	e5830000 	str	r0, [r3]
    8e54:	0a000021 	beq	8ee0 <_printf_i+0x1cc>
    8e58:	e5913000 	ldr	r3, [r1]
    8e5c:	ea000022 	b	8eec <_printf_i+0x1d8>
    8e60:	e3510075 	cmp	r1, #117	; 0x75
    8e64:	0a00000a 	beq	8e94 <_printf_i+0x180>
    8e68:	e3510078 	cmp	r1, #120	; 0x78
    8e6c:	0afffff0 	beq	8e34 <_printf_i+0x120>
    8e70:	eaffffbc 	b	8d68 <_printf_i+0x54>
    8e74:	e5932000 	ldr	r2, [r3]
    8e78:	e2821004 	add	r1, r2, #4
    8e7c:	e5831000 	str	r1, [r3]
    8e80:	e5923000 	ldr	r3, [r2]
    8e84:	e5c43042 	strb	r3, [r4, #66]	; 0x42
    8e88:	e2846042 	add	r6, r4, #66	; 0x42
    8e8c:	e3a03001 	mov	r3, #1
    8e90:	ea00003d 	b	8f8c <_printf_i+0x278>
    8e94:	e5940000 	ldr	r0, [r4]
    8e98:	e5932000 	ldr	r2, [r3]
    8e9c:	e3100080 	tst	r0, #128	; 0x80
    8ea0:	12820004 	addne	r0, r2, #4
    8ea4:	15830000 	strne	r0, [r3]
    8ea8:	1a000004 	bne	8ec0 <_printf_i+0x1ac>
    8eac:	e3100040 	tst	r0, #64	; 0x40
    8eb0:	e2820004 	add	r0, r2, #4
    8eb4:	e5830000 	str	r0, [r3]
    8eb8:	11d230b0 	ldrhne	r3, [r2]
    8ebc:	1a000000 	bne	8ec4 <_printf_i+0x1b0>
    8ec0:	e5923000 	ldr	r3, [r2]
    8ec4:	e351006f 	cmp	r1, #111	; 0x6f
    8ec8:	13a0500a 	movne	r5, #10
    8ecc:	03a05008 	moveq	r5, #8
    8ed0:	e59fa1ec 	ldr	sl, [pc, #492]	; 90c4 <_printf_i+0x3b0>
    8ed4:	e3a02000 	mov	r2, #0
    8ed8:	e5c42043 	strb	r2, [r4, #67]	; 0x43
    8edc:	eaffffba 	b	8dcc <_printf_i+0xb8>
    8ee0:	e3120040 	tst	r2, #64	; 0x40
    8ee4:	11d130b0 	ldrhne	r3, [r1]
    8ee8:	0affffda 	beq	8e58 <_printf_i+0x144>
    8eec:	e3120001 	tst	r2, #1
    8ef0:	13822020 	orrne	r2, r2, #32
    8ef4:	15842000 	strne	r2, [r4]
    8ef8:	e3530000 	cmp	r3, #0
    8efc:	05942000 	ldreq	r2, [r4]
    8f00:	03c22020 	biceq	r2, r2, #32
    8f04:	05842000 	streq	r2, [r4]
    8f08:	e3a05010 	mov	r5, #16
    8f0c:	eafffff0 	b	8ed4 <_printf_i+0x1c0>
    8f10:	e5940000 	ldr	r0, [r4]
    8f14:	e5932000 	ldr	r2, [r3]
    8f18:	e3100080 	tst	r0, #128	; 0x80
    8f1c:	12820004 	addne	r0, r2, #4
    8f20:	e5941014 	ldr	r1, [r4, #20]
    8f24:	15830000 	strne	r0, [r3]
    8f28:	15923000 	ldrne	r3, [r2]
    8f2c:	1a000005 	bne	8f48 <_printf_i+0x234>
    8f30:	e3100040 	tst	r0, #64	; 0x40
    8f34:	e2820004 	add	r0, r2, #4
    8f38:	e5830000 	str	r0, [r3]
    8f3c:	e5923000 	ldr	r3, [r2]
    8f40:	11c310b0 	strhne	r1, [r3]
    8f44:	1a000000 	bne	8f4c <_printf_i+0x238>
    8f48:	e5831000 	str	r1, [r3]
    8f4c:	e3a03000 	mov	r3, #0
    8f50:	e1a0600b 	mov	r6, fp
    8f54:	e5843010 	str	r3, [r4, #16]
    8f58:	ea00004d 	b	9094 <_printf_i+0x380>
    8f5c:	e5932000 	ldr	r2, [r3]
    8f60:	e2821004 	add	r1, r2, #4
    8f64:	e5831000 	str	r1, [r3]
    8f68:	e5926000 	ldr	r6, [r2]
    8f6c:	e3a01000 	mov	r1, #0
    8f70:	e5942004 	ldr	r2, [r4, #4]
    8f74:	e1a00006 	mov	r0, r6
    8f78:	eb00038b 	bl	9dac <memchr>
    8f7c:	e3500000 	cmp	r0, #0
    8f80:	10400006 	subne	r0, r0, r6
    8f84:	15840004 	strne	r0, [r4, #4]
    8f88:	e5943004 	ldr	r3, [r4, #4]
    8f8c:	e5843010 	str	r3, [r4, #16]
    8f90:	e3a03000 	mov	r3, #0
    8f94:	e5c43043 	strb	r3, [r4, #67]	; 0x43
    8f98:	ea00003d 	b	9094 <_printf_i+0x380>
    8f9c:	e5943010 	ldr	r3, [r4, #16]
    8fa0:	e1a02006 	mov	r2, r6
    8fa4:	e1a01008 	mov	r1, r8
    8fa8:	e1a00007 	mov	r0, r7
    8fac:	e1a0e00f 	mov	lr, pc
    8fb0:	e12fff19 	bx	r9
    8fb4:	e3700001 	cmn	r0, #1
    8fb8:	0a00003d 	beq	90b4 <_printf_i+0x3a0>
    8fbc:	e5943000 	ldr	r3, [r4]
    8fc0:	e3130002 	tst	r3, #2
    8fc4:	13a05000 	movne	r5, #0
    8fc8:	12846019 	addne	r6, r4, #25
    8fcc:	13a0a001 	movne	sl, #1
    8fd0:	1a00000d 	bne	900c <_printf_i+0x2f8>
    8fd4:	e594000c 	ldr	r0, [r4, #12]
    8fd8:	e59d3014 	ldr	r3, [sp, #20]
    8fdc:	e1500003 	cmp	r0, r3
    8fe0:	b1a00003 	movlt	r0, r3
    8fe4:	ea000033 	b	90b8 <_printf_i+0x3a4>
    8fe8:	e1a0300a 	mov	r3, sl
    8fec:	e1a02006 	mov	r2, r6
    8ff0:	e1a01008 	mov	r1, r8
    8ff4:	e1a00007 	mov	r0, r7
    8ff8:	e1a0e00f 	mov	lr, pc
    8ffc:	e12fff19 	bx	r9
    9000:	e3700001 	cmn	r0, #1
    9004:	0a00002a 	beq	90b4 <_printf_i+0x3a0>
    9008:	e2855001 	add	r5, r5, #1
    900c:	e594300c 	ldr	r3, [r4, #12]
    9010:	e59d2014 	ldr	r2, [sp, #20]
    9014:	e0433002 	sub	r3, r3, r2
    9018:	e1550003 	cmp	r5, r3
    901c:	bafffff1 	blt	8fe8 <_printf_i+0x2d4>
    9020:	eaffffeb 	b	8fd4 <_printf_i+0x2c0>
    9024:	e3530000 	cmp	r3, #0
    9028:	0affff73 	beq	8dfc <_printf_i+0xe8>
    902c:	e1a0600b 	mov	r6, fp
    9030:	e1a00003 	mov	r0, r3
    9034:	e1a01005 	mov	r1, r5
    9038:	e58d300c 	str	r3, [sp, #12]
    903c:	eb0004ba 	bl	a32c <__aeabi_uidivmod>
    9040:	e59d300c 	ldr	r3, [sp, #12]
    9044:	e7da2001 	ldrb	r2, [sl, r1]
    9048:	e1a00003 	mov	r0, r3
    904c:	e5662001 	strb	r2, [r6, #-1]!
    9050:	e1a01005 	mov	r1, r5
    9054:	eb000477 	bl	a238 <__udivsi3>
    9058:	e2503000 	subs	r3, r0, #0
    905c:	1afffff3 	bne	9030 <_printf_i+0x31c>
    9060:	e3550008 	cmp	r5, #8
    9064:	1a000008 	bne	908c <_printf_i+0x378>
    9068:	e5943000 	ldr	r3, [r4]
    906c:	e3130001 	tst	r3, #1
    9070:	0a000005 	beq	908c <_printf_i+0x378>
    9074:	e5943010 	ldr	r3, [r4, #16]
    9078:	e5942004 	ldr	r2, [r4, #4]
    907c:	e1520003 	cmp	r2, r3
    9080:	d3a03030 	movle	r3, #48	; 0x30
    9084:	d5463001 	strble	r3, [r6, #-1]
    9088:	d2466001 	suble	r6, r6, #1
    908c:	e04bb006 	sub	fp, fp, r6
    9090:	e584b010 	str	fp, [r4, #16]
    9094:	e58d9000 	str	r9, [sp]
    9098:	e1a03008 	mov	r3, r8
    909c:	e28d2014 	add	r2, sp, #20
    90a0:	e1a01004 	mov	r1, r4
    90a4:	e1a00007 	mov	r0, r7
    90a8:	ebfffeba 	bl	8b98 <_printf_common>
    90ac:	e3700001 	cmn	r0, #1
    90b0:	1affffb9 	bne	8f9c <_printf_i+0x288>
    90b4:	e3e00000 	mvn	r0, #0
    90b8:	e28dd01c 	add	sp, sp, #28
    90bc:	e8bd4ff0 	pop	{r4, r5, r6, r7, r8, r9, sl, fp, lr}
    90c0:	e12fff1e 	bx	lr
    90c4:	0000a609 	.word	0x0000a609
    90c8:	0000a61a 	.word	0x0000a61a

000090cc <_sbrk_r>:
    90cc:	e3a03000 	mov	r3, #0
    90d0:	e92d4070 	push	{r4, r5, r6, lr}
    90d4:	e59f4028 	ldr	r4, [pc, #40]	; 9104 <_sbrk_r+0x38>
    90d8:	e1a05000 	mov	r5, r0
    90dc:	e1a00001 	mov	r0, r1
    90e0:	e5843000 	str	r3, [r4]
    90e4:	eb000509 	bl	a510 <_sbrk>
    90e8:	e3700001 	cmn	r0, #1
    90ec:	1a000002 	bne	90fc <_sbrk_r+0x30>
    90f0:	e5943000 	ldr	r3, [r4]
    90f4:	e3530000 	cmp	r3, #0
    90f8:	15853000 	strne	r3, [r5]
    90fc:	e8bd4070 	pop	{r4, r5, r6, lr}
    9100:	e12fff1e 	bx	lr
    9104:	0001a6d8 	.word	0x0001a6d8

00009108 <__sread>:
    9108:	e92d4010 	push	{r4, lr}
    910c:	e1a04001 	mov	r4, r1
    9110:	e1d110fe 	ldrsh	r1, [r1, #14]
    9114:	eb0003b3 	bl	9fe8 <_read_r>
    9118:	e3500000 	cmp	r0, #0
    911c:	a5943054 	ldrge	r3, [r4, #84]	; 0x54
    9120:	b1d430bc 	ldrhlt	r3, [r4, #12]
    9124:	a0833000 	addge	r3, r3, r0
    9128:	b3c33a01 	biclt	r3, r3, #4096	; 0x1000
    912c:	a5843054 	strge	r3, [r4, #84]	; 0x54
    9130:	b1c430bc 	strhlt	r3, [r4, #12]
    9134:	e8bd4010 	pop	{r4, lr}
    9138:	e12fff1e 	bx	lr

0000913c <__seofread>:
    913c:	e3a00000 	mov	r0, #0
    9140:	e12fff1e 	bx	lr

00009144 <__swrite>:
    9144:	e92d41f0 	push	{r4, r5, r6, r7, r8, lr}
    9148:	e1a07003 	mov	r7, r3
    914c:	e1d130bc 	ldrh	r3, [r1, #12]
    9150:	e3130c01 	tst	r3, #256	; 0x100
    9154:	e1a05000 	mov	r5, r0
    9158:	e1a04001 	mov	r4, r1
    915c:	e1a06002 	mov	r6, r2
    9160:	13a03002 	movne	r3, #2
    9164:	13a02000 	movne	r2, #0
    9168:	11d110fe 	ldrshne	r1, [r1, #14]
    916c:	1b0002a7 	blne	9c10 <_lseek_r>
    9170:	e1d430bc 	ldrh	r3, [r4, #12]
    9174:	e3c33a01 	bic	r3, r3, #4096	; 0x1000
    9178:	e1c430bc 	strh	r3, [r4, #12]
    917c:	e1a02006 	mov	r2, r6
    9180:	e1a03007 	mov	r3, r7
    9184:	e1d410fe 	ldrsh	r1, [r4, #14]
    9188:	e1a00005 	mov	r0, r5
    918c:	eb000064 	bl	9324 <_write_r>
    9190:	e8bd41f0 	pop	{r4, r5, r6, r7, r8, lr}
    9194:	e12fff1e 	bx	lr

00009198 <__sseek>:
    9198:	e92d4010 	push	{r4, lr}
    919c:	e1a04001 	mov	r4, r1
    91a0:	e1d110fe 	ldrsh	r1, [r1, #14]
    91a4:	eb000299 	bl	9c10 <_lseek_r>
    91a8:	e1d430bc 	ldrh	r3, [r4, #12]
    91ac:	e3700001 	cmn	r0, #1
    91b0:	03c33a01 	biceq	r3, r3, #4096	; 0x1000
    91b4:	13833a01 	orrne	r3, r3, #4096	; 0x1000
    91b8:	01c430bc 	strheq	r3, [r4, #12]
    91bc:	11c430bc 	strhne	r3, [r4, #12]
    91c0:	15840054 	strne	r0, [r4, #84]	; 0x54
    91c4:	e8bd4010 	pop	{r4, lr}
    91c8:	e12fff1e 	bx	lr

000091cc <__sclose>:
    91cc:	e92d4010 	push	{r4, lr}
    91d0:	e1d110fe 	ldrsh	r1, [r1, #14]
    91d4:	eb0000bc 	bl	94cc <_close_r>
    91d8:	e8bd4010 	pop	{r4, lr}
    91dc:	e12fff1e 	bx	lr

000091e0 <__swbuf_r>:
    91e0:	e92d41f0 	push	{r4, r5, r6, r7, r8, lr}
    91e4:	e2505000 	subs	r5, r0, #0
    91e8:	e1a06001 	mov	r6, r1
    91ec:	e1a04002 	mov	r4, r2
    91f0:	0a000002 	beq	9200 <__swbuf_r+0x20>
    91f4:	e5953018 	ldr	r3, [r5, #24]
    91f8:	e3530000 	cmp	r3, #0
    91fc:	0bfffc4f 	bleq	8340 <__sinit>
    9200:	e59f30f8 	ldr	r3, [pc, #248]	; 9300 <__swbuf_r+0x120>
    9204:	e1540003 	cmp	r4, r3
    9208:	05954004 	ldreq	r4, [r5, #4]
    920c:	0a000006 	beq	922c <__swbuf_r+0x4c>
    9210:	e59f30ec 	ldr	r3, [pc, #236]	; 9304 <__swbuf_r+0x124>
    9214:	e1540003 	cmp	r4, r3
    9218:	05954008 	ldreq	r4, [r5, #8]
    921c:	0a000002 	beq	922c <__swbuf_r+0x4c>
    9220:	e59f30e0 	ldr	r3, [pc, #224]	; 9308 <__swbuf_r+0x128>
    9224:	e1540003 	cmp	r4, r3
    9228:	0595400c 	ldreq	r4, [r5, #12]
    922c:	e5943018 	ldr	r3, [r4, #24]
    9230:	e5843008 	str	r3, [r4, #8]
    9234:	e1d430bc 	ldrh	r3, [r4, #12]
    9238:	e3130008 	tst	r3, #8
    923c:	0a000026 	beq	92dc <__swbuf_r+0xfc>
    9240:	e5943010 	ldr	r3, [r4, #16]
    9244:	e3530000 	cmp	r3, #0
    9248:	0a000023 	beq	92dc <__swbuf_r+0xfc>
    924c:	e5943010 	ldr	r3, [r4, #16]
    9250:	e5940000 	ldr	r0, [r4]
    9254:	e0400003 	sub	r0, r0, r3
    9258:	e5943014 	ldr	r3, [r4, #20]
    925c:	e20660ff 	and	r6, r6, #255	; 0xff
    9260:	e1500003 	cmp	r0, r3
    9264:	e1a07006 	mov	r7, r6
    9268:	ba000004 	blt	9280 <__swbuf_r+0xa0>
    926c:	e1a01004 	mov	r1, r4
    9270:	e1a00005 	mov	r0, r5
    9274:	eb00011d 	bl	96f0 <_fflush_r>
    9278:	e3500000 	cmp	r0, #0
    927c:	1a00001b 	bne	92f0 <__swbuf_r+0x110>
    9280:	e5943008 	ldr	r3, [r4, #8]
    9284:	e2433001 	sub	r3, r3, #1
    9288:	e5843008 	str	r3, [r4, #8]
    928c:	e5943000 	ldr	r3, [r4]
    9290:	e2832001 	add	r2, r3, #1
    9294:	e5842000 	str	r2, [r4]
    9298:	e5c36000 	strb	r6, [r3]
    929c:	e5943014 	ldr	r3, [r4, #20]
    92a0:	e2800001 	add	r0, r0, #1
    92a4:	e1500003 	cmp	r0, r3
    92a8:	0a000005 	beq	92c4 <__swbuf_r+0xe4>
    92ac:	e1d430bc 	ldrh	r3, [r4, #12]
    92b0:	e356000a 	cmp	r6, #10
    92b4:	13a06000 	movne	r6, #0
    92b8:	02036001 	andeq	r6, r3, #1
    92bc:	e3560000 	cmp	r6, #0
    92c0:	0a00000b 	beq	92f4 <__swbuf_r+0x114>
    92c4:	e1a01004 	mov	r1, r4
    92c8:	e1a00005 	mov	r0, r5
    92cc:	eb000107 	bl	96f0 <_fflush_r>
    92d0:	e3500000 	cmp	r0, #0
    92d4:	0a000006 	beq	92f4 <__swbuf_r+0x114>
    92d8:	ea000004 	b	92f0 <__swbuf_r+0x110>
    92dc:	e1a01004 	mov	r1, r4
    92e0:	e1a00005 	mov	r0, r5
    92e4:	eb00001f 	bl	9368 <__swsetup_r>
    92e8:	e3500000 	cmp	r0, #0
    92ec:	0affffd6 	beq	924c <__swbuf_r+0x6c>
    92f0:	e3e07000 	mvn	r7, #0
    92f4:	e1a00007 	mov	r0, r7
    92f8:	e8bd41f0 	pop	{r4, r5, r6, r7, r8, lr}
    92fc:	e12fff1e 	bx	lr
    9300:	0000a5b4 	.word	0x0000a5b4
    9304:	0000a5d4 	.word	0x0000a5d4
    9308:	0000a594 	.word	0x0000a594

0000930c <__swbuf>:
    930c:	e59f300c 	ldr	r3, [pc, #12]	; 9320 <__swbuf+0x14>
    9310:	e1a02001 	mov	r2, r1
    9314:	e1a01000 	mov	r1, r0
    9318:	e5930000 	ldr	r0, [r3]
    931c:	eaffffaf 	b	91e0 <__swbuf_r>
    9320:	0001a64c 	.word	0x0001a64c

00009324 <_write_r>:
    9324:	e92d4070 	push	{r4, r5, r6, lr}
    9328:	e1a05000 	mov	r5, r0
    932c:	e1a00001 	mov	r0, r1
    9330:	e1a01002 	mov	r1, r2
    9334:	e3a02000 	mov	r2, #0
    9338:	e59f4024 	ldr	r4, [pc, #36]	; 9364 <_write_r+0x40>
    933c:	e5842000 	str	r2, [r4]
    9340:	e1a02003 	mov	r2, r3
    9344:	eb00047d 	bl	a540 <_write>
    9348:	e3700001 	cmn	r0, #1
    934c:	1a000002 	bne	935c <_write_r+0x38>
    9350:	e5943000 	ldr	r3, [r4]
    9354:	e3530000 	cmp	r3, #0
    9358:	15853000 	strne	r3, [r5]
    935c:	e8bd4070 	pop	{r4, r5, r6, lr}
    9360:	e12fff1e 	bx	lr
    9364:	0001a6d8 	.word	0x0001a6d8

00009368 <__swsetup_r>:
    9368:	e59f314c 	ldr	r3, [pc, #332]	; 94bc <__swsetup_r+0x154>
    936c:	e92d4070 	push	{r4, r5, r6, lr}
    9370:	e5935000 	ldr	r5, [r3]
    9374:	e3550000 	cmp	r5, #0
    9378:	e1a06000 	mov	r6, r0
    937c:	e1a04001 	mov	r4, r1
    9380:	0a000003 	beq	9394 <__swsetup_r+0x2c>
    9384:	e5953018 	ldr	r3, [r5, #24]
    9388:	e3530000 	cmp	r3, #0
    938c:	01a00005 	moveq	r0, r5
    9390:	0bfffbea 	bleq	8340 <__sinit>
    9394:	e59f3124 	ldr	r3, [pc, #292]	; 94c0 <__swsetup_r+0x158>
    9398:	e1540003 	cmp	r4, r3
    939c:	05954004 	ldreq	r4, [r5, #4]
    93a0:	0a000006 	beq	93c0 <__swsetup_r+0x58>
    93a4:	e59f3118 	ldr	r3, [pc, #280]	; 94c4 <__swsetup_r+0x15c>
    93a8:	e1540003 	cmp	r4, r3
    93ac:	05954008 	ldreq	r4, [r5, #8]
    93b0:	0a000002 	beq	93c0 <__swsetup_r+0x58>
    93b4:	e59f310c 	ldr	r3, [pc, #268]	; 94c8 <__swsetup_r+0x160>
    93b8:	e1540003 	cmp	r4, r3
    93bc:	0595400c 	ldreq	r4, [r5, #12]
    93c0:	e1d430bc 	ldrh	r3, [r4, #12]
    93c4:	e3130008 	tst	r3, #8
    93c8:	e1d420fc 	ldrsh	r2, [r4, #12]
    93cc:	1a000019 	bne	9438 <__swsetup_r+0xd0>
    93d0:	e3130010 	tst	r3, #16
    93d4:	03a03009 	moveq	r3, #9
    93d8:	05863000 	streq	r3, [r6]
    93dc:	03823040 	orreq	r3, r2, #64	; 0x40
    93e0:	0a00002d 	beq	949c <__swsetup_r+0x134>
    93e4:	e3130004 	tst	r3, #4
    93e8:	0a00000f 	beq	942c <__swsetup_r+0xc4>
    93ec:	e5941034 	ldr	r1, [r4, #52]	; 0x34
    93f0:	e3510000 	cmp	r1, #0
    93f4:	0a000005 	beq	9410 <__swsetup_r+0xa8>
    93f8:	e2843044 	add	r3, r4, #68	; 0x44
    93fc:	e1510003 	cmp	r1, r3
    9400:	11a00006 	movne	r0, r6
    9404:	1b000293 	blne	9e58 <_free_r>
    9408:	e3a03000 	mov	r3, #0
    940c:	e5843034 	str	r3, [r4, #52]	; 0x34
    9410:	e1d430bc 	ldrh	r3, [r4, #12]
    9414:	e3c33024 	bic	r3, r3, #36	; 0x24
    9418:	e1c430bc 	strh	r3, [r4, #12]
    941c:	e3a03000 	mov	r3, #0
    9420:	e5843004 	str	r3, [r4, #4]
    9424:	e5943010 	ldr	r3, [r4, #16]
    9428:	e5843000 	str	r3, [r4]
    942c:	e1d430bc 	ldrh	r3, [r4, #12]
    9430:	e3833008 	orr	r3, r3, #8
    9434:	e1c430bc 	strh	r3, [r4, #12]
    9438:	e5943010 	ldr	r3, [r4, #16]
    943c:	e3530000 	cmp	r3, #0
    9440:	1a000005 	bne	945c <__swsetup_r+0xf4>
    9444:	e1d430bc 	ldrh	r3, [r4, #12]
    9448:	e2033d0a 	and	r3, r3, #640	; 0x280
    944c:	e3530c02 	cmp	r3, #512	; 0x200
    9450:	11a01004 	movne	r1, r4
    9454:	11a00006 	movne	r0, r6
    9458:	1b00021c 	blne	9cd0 <__smakebuf_r>
    945c:	e1d420bc 	ldrh	r2, [r4, #12]
    9460:	e2123001 	ands	r3, r2, #1
    9464:	0a000010 	beq	94ac <__swsetup_r+0x144>
    9468:	e3a03000 	mov	r3, #0
    946c:	e5843008 	str	r3, [r4, #8]
    9470:	e5943014 	ldr	r3, [r4, #20]
    9474:	e2633000 	rsb	r3, r3, #0
    9478:	e5843018 	str	r3, [r4, #24]
    947c:	e5943010 	ldr	r3, [r4, #16]
    9480:	e3530000 	cmp	r3, #0
    9484:	13a00000 	movne	r0, #0
    9488:	1a000005 	bne	94a4 <__swsetup_r+0x13c>
    948c:	e1d430fc 	ldrsh	r3, [r4, #12]
    9490:	e2130080 	ands	r0, r3, #128	; 0x80
    9494:	0a000002 	beq	94a4 <__swsetup_r+0x13c>
    9498:	e3833040 	orr	r3, r3, #64	; 0x40
    949c:	e3e00000 	mvn	r0, #0
    94a0:	e1c430bc 	strh	r3, [r4, #12]
    94a4:	e8bd4070 	pop	{r4, r5, r6, lr}
    94a8:	e12fff1e 	bx	lr
    94ac:	e3120002 	tst	r2, #2
    94b0:	05943014 	ldreq	r3, [r4, #20]
    94b4:	e5843008 	str	r3, [r4, #8]
    94b8:	eaffffef 	b	947c <__swsetup_r+0x114>
    94bc:	0001a64c 	.word	0x0001a64c
    94c0:	0000a5b4 	.word	0x0000a5b4
    94c4:	0000a5d4 	.word	0x0000a5d4
    94c8:	0000a594 	.word	0x0000a594

000094cc <_close_r>:
    94cc:	e3a03000 	mov	r3, #0
    94d0:	e92d4070 	push	{r4, r5, r6, lr}
    94d4:	e59f4028 	ldr	r4, [pc, #40]	; 9504 <_close_r+0x38>
    94d8:	e1a05000 	mov	r5, r0
    94dc:	e1a00001 	mov	r0, r1
    94e0:	e5843000 	str	r3, [r4]
    94e4:	eb0003eb 	bl	a498 <_close>
    94e8:	e3700001 	cmn	r0, #1
    94ec:	1a000002 	bne	94fc <_close_r+0x30>
    94f0:	e5943000 	ldr	r3, [r4]
    94f4:	e3530000 	cmp	r3, #0
    94f8:	15853000 	strne	r3, [r5]
    94fc:	e8bd4070 	pop	{r4, r5, r6, lr}
    9500:	e12fff1e 	bx	lr
    9504:	0001a6d8 	.word	0x0001a6d8

00009508 <__sflush_r>:
    9508:	e92d41f0 	push	{r4, r5, r6, r7, r8, lr}
    950c:	e1a05000 	mov	r5, r0
    9510:	e1d100bc 	ldrh	r0, [r1, #12]
    9514:	e3100008 	tst	r0, #8
    9518:	e1a04001 	mov	r4, r1
    951c:	1a000055 	bne	9678 <__sflush_r+0x170>
    9520:	e5913004 	ldr	r3, [r1, #4]
    9524:	e3530000 	cmp	r3, #0
    9528:	ca000005 	bgt	9544 <__sflush_r+0x3c>
    952c:	e5913040 	ldr	r3, [r1, #64]	; 0x40
    9530:	e3530000 	cmp	r3, #0
    9534:	ca000002 	bgt	9544 <__sflush_r+0x3c>
    9538:	e3a00000 	mov	r0, #0
    953c:	e8bd41f0 	pop	{r4, r5, r6, r7, r8, lr}
    9540:	e12fff1e 	bx	lr
    9544:	e594802c 	ldr	r8, [r4, #44]	; 0x2c
    9548:	e3580000 	cmp	r8, #0
    954c:	0afffff9 	beq	9538 <__sflush_r+0x30>
    9550:	e3a03000 	mov	r3, #0
    9554:	e2106a01 	ands	r6, r0, #4096	; 0x1000
    9558:	e5957000 	ldr	r7, [r5]
    955c:	15940054 	ldrne	r0, [r4, #84]	; 0x54
    9560:	e5853000 	str	r3, [r5]
    9564:	1a000012 	bne	95b4 <__sflush_r+0xac>
    9568:	e3a03001 	mov	r3, #1
    956c:	e1a02006 	mov	r2, r6
    9570:	e5941020 	ldr	r1, [r4, #32]
    9574:	e1a00005 	mov	r0, r5
    9578:	e1a0e00f 	mov	lr, pc
    957c:	e12fff18 	bx	r8
    9580:	e3700001 	cmn	r0, #1
    9584:	1a00000a 	bne	95b4 <__sflush_r+0xac>
    9588:	e5953000 	ldr	r3, [r5]
    958c:	e3530000 	cmp	r3, #0
    9590:	0a000007 	beq	95b4 <__sflush_r+0xac>
    9594:	e3530016 	cmp	r3, #22
    9598:	1353001d 	cmpne	r3, #29
    959c:	11d430bc 	ldrhne	r3, [r4, #12]
    95a0:	13833040 	orrne	r3, r3, #64	; 0x40
    95a4:	05857000 	streq	r7, [r5]
    95a8:	11c430bc 	strhne	r3, [r4, #12]
    95ac:	0affffe1 	beq	9538 <__sflush_r+0x30>
    95b0:	eaffffe1 	b	953c <__sflush_r+0x34>
    95b4:	e1d430bc 	ldrh	r3, [r4, #12]
    95b8:	e3130004 	tst	r3, #4
    95bc:	0a000005 	beq	95d8 <__sflush_r+0xd0>
    95c0:	e5943004 	ldr	r3, [r4, #4]
    95c4:	e0400003 	sub	r0, r0, r3
    95c8:	e5943034 	ldr	r3, [r4, #52]	; 0x34
    95cc:	e3530000 	cmp	r3, #0
    95d0:	15943040 	ldrne	r3, [r4, #64]	; 0x40
    95d4:	10400003 	subne	r0, r0, r3
    95d8:	e3a03000 	mov	r3, #0
    95dc:	e1a02000 	mov	r2, r0
    95e0:	e594602c 	ldr	r6, [r4, #44]	; 0x2c
    95e4:	e5941020 	ldr	r1, [r4, #32]
    95e8:	e1a00005 	mov	r0, r5
    95ec:	e1a0e00f 	mov	lr, pc
    95f0:	e12fff16 	bx	r6
    95f4:	e3700001 	cmn	r0, #1
    95f8:	e1d430bc 	ldrh	r3, [r4, #12]
    95fc:	1a000006 	bne	961c <__sflush_r+0x114>
    9600:	e5951000 	ldr	r1, [r5]
    9604:	e351001d 	cmp	r1, #29
    9608:	8a000030 	bhi	96d0 <__sflush_r+0x1c8>
    960c:	e59f20d8 	ldr	r2, [pc, #216]	; 96ec <__sflush_r+0x1e4>
    9610:	e1e02132 	mvn	r2, r2, lsr r1
    9614:	e3120001 	tst	r2, #1
    9618:	1a00002c 	bne	96d0 <__sflush_r+0x1c8>
    961c:	e3a02000 	mov	r2, #0
    9620:	e5842004 	str	r2, [r4, #4]
    9624:	e5942010 	ldr	r2, [r4, #16]
    9628:	e3130a01 	tst	r3, #4096	; 0x1000
    962c:	e5842000 	str	r2, [r4]
    9630:	0a000005 	beq	964c <__sflush_r+0x144>
    9634:	e3700001 	cmn	r0, #1
    9638:	1a000002 	bne	9648 <__sflush_r+0x140>
    963c:	e5953000 	ldr	r3, [r5]
    9640:	e3530000 	cmp	r3, #0
    9644:	1a000000 	bne	964c <__sflush_r+0x144>
    9648:	e5840054 	str	r0, [r4, #84]	; 0x54
    964c:	e5941034 	ldr	r1, [r4, #52]	; 0x34
    9650:	e3510000 	cmp	r1, #0
    9654:	e5857000 	str	r7, [r5]
    9658:	0affffb6 	beq	9538 <__sflush_r+0x30>
    965c:	e2843044 	add	r3, r4, #68	; 0x44
    9660:	e1510003 	cmp	r1, r3
    9664:	11a00005 	movne	r0, r5
    9668:	1b0001fa 	blne	9e58 <_free_r>
    966c:	e3a00000 	mov	r0, #0
    9670:	e5840034 	str	r0, [r4, #52]	; 0x34
    9674:	eaffffb0 	b	953c <__sflush_r+0x34>
    9678:	e5917010 	ldr	r7, [r1, #16]
    967c:	e3570000 	cmp	r7, #0
    9680:	0affffac 	beq	9538 <__sflush_r+0x30>
    9684:	e3100003 	tst	r0, #3
    9688:	13a03000 	movne	r3, #0
    968c:	05913014 	ldreq	r3, [r1, #20]
    9690:	e5916000 	ldr	r6, [r1]
    9694:	e5813008 	str	r3, [r1, #8]
    9698:	e5817000 	str	r7, [r1]
    969c:	e0466007 	sub	r6, r6, r7
    96a0:	e3560000 	cmp	r6, #0
    96a4:	daffffa3 	ble	9538 <__sflush_r+0x30>
    96a8:	e5948028 	ldr	r8, [r4, #40]	; 0x28
    96ac:	e1a03006 	mov	r3, r6
    96b0:	e1a02007 	mov	r2, r7
    96b4:	e5941020 	ldr	r1, [r4, #32]
    96b8:	e1a00005 	mov	r0, r5
    96bc:	e1a0e00f 	mov	lr, pc
    96c0:	e12fff18 	bx	r8
    96c4:	e3500000 	cmp	r0, #0
    96c8:	ca000004 	bgt	96e0 <__sflush_r+0x1d8>
    96cc:	e1d430bc 	ldrh	r3, [r4, #12]
    96d0:	e3833040 	orr	r3, r3, #64	; 0x40
    96d4:	e1c430bc 	strh	r3, [r4, #12]
    96d8:	e3e00000 	mvn	r0, #0
    96dc:	eaffff96 	b	953c <__sflush_r+0x34>
    96e0:	e0877000 	add	r7, r7, r0
    96e4:	e0466000 	sub	r6, r6, r0
    96e8:	eaffffec 	b	96a0 <__sflush_r+0x198>
    96ec:	20400001 	.word	0x20400001

000096f0 <_fflush_r>:
    96f0:	e5913010 	ldr	r3, [r1, #16]
    96f4:	e3530000 	cmp	r3, #0
    96f8:	0a00001b 	beq	976c <_fflush_r+0x7c>
    96fc:	e3500000 	cmp	r0, #0
    9700:	e92d4070 	push	{r4, r5, r6, lr}
    9704:	e1a05000 	mov	r5, r0
    9708:	e1a04001 	mov	r4, r1
    970c:	0a000002 	beq	971c <_fflush_r+0x2c>
    9710:	e5903018 	ldr	r3, [r0, #24]
    9714:	e3530000 	cmp	r3, #0
    9718:	0bfffb08 	bleq	8340 <__sinit>
    971c:	e59f3050 	ldr	r3, [pc, #80]	; 9774 <_fflush_r+0x84>
    9720:	e1540003 	cmp	r4, r3
    9724:	05954004 	ldreq	r4, [r5, #4]
    9728:	0a000006 	beq	9748 <_fflush_r+0x58>
    972c:	e59f3044 	ldr	r3, [pc, #68]	; 9778 <_fflush_r+0x88>
    9730:	e1540003 	cmp	r4, r3
    9734:	05954008 	ldreq	r4, [r5, #8]
    9738:	0a000002 	beq	9748 <_fflush_r+0x58>
    973c:	e59f3038 	ldr	r3, [pc, #56]	; 977c <_fflush_r+0x8c>
    9740:	e1540003 	cmp	r4, r3
    9744:	0595400c 	ldreq	r4, [r5, #12]
    9748:	e1d430fc 	ldrsh	r3, [r4, #12]
    974c:	e3530000 	cmp	r3, #0
    9750:	11a01004 	movne	r1, r4
    9754:	11a00005 	movne	r0, r5
    9758:	18bd4070 	popne	{r4, r5, r6, lr}
    975c:	1affff69 	bne	9508 <__sflush_r>
    9760:	e3a00000 	mov	r0, #0
    9764:	e8bd4070 	pop	{r4, r5, r6, lr}
    9768:	e12fff1e 	bx	lr
    976c:	e3a00000 	mov	r0, #0
    9770:	e12fff1e 	bx	lr
    9774:	0000a5b4 	.word	0x0000a5b4
    9778:	0000a5d4 	.word	0x0000a5d4
    977c:	0000a594 	.word	0x0000a594

00009780 <fflush>:
    9780:	e2501000 	subs	r1, r0, #0
    9784:	1a000006 	bne	97a4 <fflush+0x24>
    9788:	e92d4010 	push	{r4, lr}
    978c:	e59f301c 	ldr	r3, [pc, #28]	; 97b0 <fflush+0x30>
    9790:	e59f101c 	ldr	r1, [pc, #28]	; 97b4 <fflush+0x34>
    9794:	e5930000 	ldr	r0, [r3]
    9798:	ebfffb79 	bl	8584 <_fwalk_reent>
    979c:	e8bd4010 	pop	{r4, lr}
    97a0:	e12fff1e 	bx	lr
    97a4:	e59f300c 	ldr	r3, [pc, #12]	; 97b8 <fflush+0x38>
    97a8:	e5930000 	ldr	r0, [r3]
    97ac:	eaffffcf 	b	96f0 <_fflush_r>
    97b0:	0000a5f4 	.word	0x0000a5f4
    97b4:	000096f0 	.word	0x000096f0
    97b8:	0001a64c 	.word	0x0001a64c

000097bc <__sfvwrite_r>:
    97bc:	e5923008 	ldr	r3, [r2, #8]
    97c0:	e3530000 	cmp	r3, #0
    97c4:	e92d4ff7 	push	{r0, r1, r2, r4, r5, r6, r7, r8, r9, sl, fp, lr}
    97c8:	1a000003 	bne	97dc <__sfvwrite_r+0x20>
    97cc:	e3a00000 	mov	r0, #0
    97d0:	e28dd00c 	add	sp, sp, #12
    97d4:	e8bd4ff0 	pop	{r4, r5, r6, r7, r8, r9, sl, fp, lr}
    97d8:	e12fff1e 	bx	lr
    97dc:	e1d130bc 	ldrh	r3, [r1, #12]
    97e0:	e3130008 	tst	r3, #8
    97e4:	e1a0b002 	mov	fp, r2
    97e8:	e1a04001 	mov	r4, r1
    97ec:	e1a07000 	mov	r7, r0
    97f0:	0a00001e 	beq	9870 <__sfvwrite_r+0xb4>
    97f4:	e5913010 	ldr	r3, [r1, #16]
    97f8:	e3530000 	cmp	r3, #0
    97fc:	0a00001b 	beq	9870 <__sfvwrite_r+0xb4>
    9800:	e1d480bc 	ldrh	r8, [r4, #12]
    9804:	e2185002 	ands	r5, r8, #2
    9808:	e59b9000 	ldr	r9, [fp]
    980c:	0a000022 	beq	989c <__sfvwrite_r+0xe0>
    9810:	e3a06000 	mov	r6, #0
    9814:	e1a05006 	mov	r5, r6
    9818:	e59f83ec 	ldr	r8, [pc, #1004]	; 9c0c <__sfvwrite_r+0x450>
    981c:	e3550000 	cmp	r5, #0
    9820:	0a000019 	beq	988c <__sfvwrite_r+0xd0>
    9824:	e1550008 	cmp	r5, r8
    9828:	31a03005 	movcc	r3, r5
    982c:	21a03008 	movcs	r3, r8
    9830:	e594a028 	ldr	sl, [r4, #40]	; 0x28
    9834:	e1a02006 	mov	r2, r6
    9838:	e5941020 	ldr	r1, [r4, #32]
    983c:	e1a00007 	mov	r0, r7
    9840:	e1a0e00f 	mov	lr, pc
    9844:	e12fff1a 	bx	sl
    9848:	e3500000 	cmp	r0, #0
    984c:	da000073 	ble	9a20 <__sfvwrite_r+0x264>
    9850:	e59b3008 	ldr	r3, [fp, #8]
    9854:	e0866000 	add	r6, r6, r0
    9858:	e0455000 	sub	r5, r5, r0
    985c:	e0430000 	sub	r0, r3, r0
    9860:	e3500000 	cmp	r0, #0
    9864:	e58b0008 	str	r0, [fp, #8]
    9868:	1affffeb 	bne	981c <__sfvwrite_r+0x60>
    986c:	eaffffd6 	b	97cc <__sfvwrite_r+0x10>
    9870:	e1a01004 	mov	r1, r4
    9874:	e1a00007 	mov	r0, r7
    9878:	ebfffeba 	bl	9368 <__swsetup_r>
    987c:	e3500000 	cmp	r0, #0
    9880:	0affffde 	beq	9800 <__sfvwrite_r+0x44>
    9884:	e3e00000 	mvn	r0, #0
    9888:	eaffffd0 	b	97d0 <__sfvwrite_r+0x14>
    988c:	e5996000 	ldr	r6, [r9]
    9890:	e5995004 	ldr	r5, [r9, #4]
    9894:	e2899008 	add	r9, r9, #8
    9898:	eaffffdf 	b	981c <__sfvwrite_r+0x60>
    989c:	e2188001 	ands	r8, r8, #1
    98a0:	11a00005 	movne	r0, r5
    98a4:	11a0a005 	movne	sl, r5
    98a8:	11a08005 	movne	r8, r5
    98ac:	01a06008 	moveq	r6, r8
    98b0:	0a00003a 	beq	99a0 <__sfvwrite_r+0x1e4>
    98b4:	e3580000 	cmp	r8, #0
    98b8:	0a0000b6 	beq	9b98 <__sfvwrite_r+0x3dc>
    98bc:	e3500000 	cmp	r0, #0
    98c0:	1a000007 	bne	98e4 <__sfvwrite_r+0x128>
    98c4:	e1a02008 	mov	r2, r8
    98c8:	e3a0100a 	mov	r1, #10
    98cc:	e1a0000a 	mov	r0, sl
    98d0:	eb000135 	bl	9dac <memchr>
    98d4:	e2505000 	subs	r5, r0, #0
    98d8:	12855001 	addne	r5, r5, #1
    98dc:	1045500a 	subne	r5, r5, sl
    98e0:	02885001 	addeq	r5, r8, #1
    98e4:	e1550008 	cmp	r5, r8
    98e8:	31a03005 	movcc	r3, r5
    98ec:	21a03008 	movcs	r3, r8
    98f0:	e5942010 	ldr	r2, [r4, #16]
    98f4:	e58d3004 	str	r3, [sp, #4]
    98f8:	e5946008 	ldr	r6, [r4, #8]
    98fc:	e5943014 	ldr	r3, [r4, #20]
    9900:	e5940000 	ldr	r0, [r4]
    9904:	e59d1004 	ldr	r1, [sp, #4]
    9908:	e1500002 	cmp	r0, r2
    990c:	e0836006 	add	r6, r3, r6
    9910:	93a02000 	movls	r2, #0
    9914:	83a02001 	movhi	r2, #1
    9918:	e1510006 	cmp	r1, r6
    991c:	d3a02000 	movle	r2, #0
    9920:	e3520000 	cmp	r2, #0
    9924:	0a0000a0 	beq	9bac <__sfvwrite_r+0x3f0>
    9928:	e1a02006 	mov	r2, r6
    992c:	e1a0100a 	mov	r1, sl
    9930:	eb000132 	bl	9e00 <memmove>
    9934:	e5943000 	ldr	r3, [r4]
    9938:	e0833006 	add	r3, r3, r6
    993c:	e5843000 	str	r3, [r4]
    9940:	e1a01004 	mov	r1, r4
    9944:	e1a00007 	mov	r0, r7
    9948:	ebffff68 	bl	96f0 <_fflush_r>
    994c:	e3500000 	cmp	r0, #0
    9950:	1a000032 	bne	9a20 <__sfvwrite_r+0x264>
    9954:	e0555006 	subs	r5, r5, r6
    9958:	13a00001 	movne	r0, #1
    995c:	1a000004 	bne	9974 <__sfvwrite_r+0x1b8>
    9960:	e1a01004 	mov	r1, r4
    9964:	e1a00007 	mov	r0, r7
    9968:	ebffff60 	bl	96f0 <_fflush_r>
    996c:	e3500000 	cmp	r0, #0
    9970:	1a00002a 	bne	9a20 <__sfvwrite_r+0x264>
    9974:	e59b3008 	ldr	r3, [fp, #8]
    9978:	e08aa006 	add	sl, sl, r6
    997c:	e0488006 	sub	r8, r8, r6
    9980:	e0436006 	sub	r6, r3, r6
    9984:	e3560000 	cmp	r6, #0
    9988:	e58b6008 	str	r6, [fp, #8]
    998c:	1affffc8 	bne	98b4 <__sfvwrite_r+0xf8>
    9990:	eaffff8d 	b	97cc <__sfvwrite_r+0x10>
    9994:	e5998000 	ldr	r8, [r9]
    9998:	e5996004 	ldr	r6, [r9, #4]
    999c:	e2899008 	add	r9, r9, #8
    99a0:	e3560000 	cmp	r6, #0
    99a4:	0afffffa 	beq	9994 <__sfvwrite_r+0x1d8>
    99a8:	e1d420bc 	ldrh	r2, [r4, #12]
    99ac:	e3120c02 	tst	r2, #512	; 0x200
    99b0:	e5945008 	ldr	r5, [r4, #8]
    99b4:	0a00004e 	beq	9af4 <__sfvwrite_r+0x338>
    99b8:	e1560005 	cmp	r6, r5
    99bc:	3a00002c 	bcc	9a74 <__sfvwrite_r+0x2b8>
    99c0:	e3120d12 	tst	r2, #1152	; 0x480
    99c4:	0a000028 	beq	9a6c <__sfvwrite_r+0x2b0>
    99c8:	e594a000 	ldr	sl, [r4]
    99cc:	e5941010 	ldr	r1, [r4, #16]
    99d0:	e04a3001 	sub	r3, sl, r1
    99d4:	e58d3004 	str	r3, [sp, #4]
    99d8:	e5943014 	ldr	r3, [r4, #20]
    99dc:	e0833083 	add	r3, r3, r3, lsl #1
    99e0:	e0833fa3 	add	r3, r3, r3, lsr #31
    99e4:	e1a0a0c3 	asr	sl, r3, #1
    99e8:	e59d3004 	ldr	r3, [sp, #4]
    99ec:	e2830001 	add	r0, r3, #1
    99f0:	e0800006 	add	r0, r0, r6
    99f4:	e15a0000 	cmp	sl, r0
    99f8:	31a0a000 	movcc	sl, r0
    99fc:	e3120b01 	tst	r2, #1024	; 0x400
    9a00:	0a00002f 	beq	9ac4 <__sfvwrite_r+0x308>
    9a04:	e1a0100a 	mov	r1, sl
    9a08:	e1a00007 	mov	r0, r7
    9a0c:	ebfffaff 	bl	8610 <_malloc_r>
    9a10:	e2505000 	subs	r5, r0, #0
    9a14:	1a000005 	bne	9a30 <__sfvwrite_r+0x274>
    9a18:	e3a0300c 	mov	r3, #12
    9a1c:	e5873000 	str	r3, [r7]
    9a20:	e1d430bc 	ldrh	r3, [r4, #12]
    9a24:	e3833040 	orr	r3, r3, #64	; 0x40
    9a28:	e1c430bc 	strh	r3, [r4, #12]
    9a2c:	eaffff94 	b	9884 <__sfvwrite_r+0xc8>
    9a30:	e59d2004 	ldr	r2, [sp, #4]
    9a34:	e5941010 	ldr	r1, [r4, #16]
    9a38:	eb0000e8 	bl	9de0 <memcpy>
    9a3c:	e1d420bc 	ldrh	r2, [r4, #12]
    9a40:	e3c22d12 	bic	r2, r2, #1152	; 0x480
    9a44:	e3822080 	orr	r2, r2, #128	; 0x80
    9a48:	e1c420bc 	strh	r2, [r4, #12]
    9a4c:	e59d3004 	ldr	r3, [sp, #4]
    9a50:	e5845010 	str	r5, [r4, #16]
    9a54:	e0855003 	add	r5, r5, r3
    9a58:	e5845000 	str	r5, [r4]
    9a5c:	e1a05006 	mov	r5, r6
    9a60:	e584a014 	str	sl, [r4, #20]
    9a64:	e04aa003 	sub	sl, sl, r3
    9a68:	e584a008 	str	sl, [r4, #8]
    9a6c:	e1560005 	cmp	r6, r5
    9a70:	2a000000 	bcs	9a78 <__sfvwrite_r+0x2bc>
    9a74:	e1a05006 	mov	r5, r6
    9a78:	e1a02005 	mov	r2, r5
    9a7c:	e1a01008 	mov	r1, r8
    9a80:	e5940000 	ldr	r0, [r4]
    9a84:	eb0000dd 	bl	9e00 <memmove>
    9a88:	e5943008 	ldr	r3, [r4, #8]
    9a8c:	e0433005 	sub	r3, r3, r5
    9a90:	e5843008 	str	r3, [r4, #8]
    9a94:	e5943000 	ldr	r3, [r4]
    9a98:	e0835005 	add	r5, r3, r5
    9a9c:	e5845000 	str	r5, [r4]
    9aa0:	e1a05006 	mov	r5, r6
    9aa4:	e59b3008 	ldr	r3, [fp, #8]
    9aa8:	e0888005 	add	r8, r8, r5
    9aac:	e0466005 	sub	r6, r6, r5
    9ab0:	e0435005 	sub	r5, r3, r5
    9ab4:	e3550000 	cmp	r5, #0
    9ab8:	e58b5008 	str	r5, [fp, #8]
    9abc:	1affffb7 	bne	99a0 <__sfvwrite_r+0x1e4>
    9ac0:	eaffff41 	b	97cc <__sfvwrite_r+0x10>
    9ac4:	e1a0200a 	mov	r2, sl
    9ac8:	e1a00007 	mov	r0, r7
    9acc:	eb000125 	bl	9f68 <_realloc_r>
    9ad0:	e2505000 	subs	r5, r0, #0
    9ad4:	1affffdc 	bne	9a4c <__sfvwrite_r+0x290>
    9ad8:	e5941010 	ldr	r1, [r4, #16]
    9adc:	e1a00007 	mov	r0, r7
    9ae0:	eb0000dc 	bl	9e58 <_free_r>
    9ae4:	e1d430bc 	ldrh	r3, [r4, #12]
    9ae8:	e3c33080 	bic	r3, r3, #128	; 0x80
    9aec:	e1c430bc 	strh	r3, [r4, #12]
    9af0:	eaffffc8 	b	9a18 <__sfvwrite_r+0x25c>
    9af4:	e5940000 	ldr	r0, [r4]
    9af8:	e5943010 	ldr	r3, [r4, #16]
    9afc:	e1500003 	cmp	r0, r3
    9b00:	8a000002 	bhi	9b10 <__sfvwrite_r+0x354>
    9b04:	e594a014 	ldr	sl, [r4, #20]
    9b08:	e156000a 	cmp	r6, sl
    9b0c:	2a000012 	bcs	9b5c <__sfvwrite_r+0x3a0>
    9b10:	e1550006 	cmp	r5, r6
    9b14:	21a05006 	movcs	r5, r6
    9b18:	e1a01008 	mov	r1, r8
    9b1c:	e1a02005 	mov	r2, r5
    9b20:	eb0000b6 	bl	9e00 <memmove>
    9b24:	e5943008 	ldr	r3, [r4, #8]
    9b28:	e5942000 	ldr	r2, [r4]
    9b2c:	e0433005 	sub	r3, r3, r5
    9b30:	e0822005 	add	r2, r2, r5
    9b34:	e3530000 	cmp	r3, #0
    9b38:	e5843008 	str	r3, [r4, #8]
    9b3c:	e5842000 	str	r2, [r4]
    9b40:	1affffd7 	bne	9aa4 <__sfvwrite_r+0x2e8>
    9b44:	e1a01004 	mov	r1, r4
    9b48:	e1a00007 	mov	r0, r7
    9b4c:	ebfffee7 	bl	96f0 <_fflush_r>
    9b50:	e3500000 	cmp	r0, #0
    9b54:	0affffd2 	beq	9aa4 <__sfvwrite_r+0x2e8>
    9b58:	eaffffb0 	b	9a20 <__sfvwrite_r+0x264>
    9b5c:	e3760106 	cmn	r6, #-2147483647	; 0x80000001
    9b60:	31a00006 	movcc	r0, r6
    9b64:	23e00102 	mvncs	r0, #-2147483648	; 0x80000000
    9b68:	e1a0100a 	mov	r1, sl
    9b6c:	eb0001f6 	bl	a34c <__divsi3>
    9b70:	e5945028 	ldr	r5, [r4, #40]	; 0x28
    9b74:	e003009a 	mul	r3, sl, r0
    9b78:	e1a02008 	mov	r2, r8
    9b7c:	e5941020 	ldr	r1, [r4, #32]
    9b80:	e1a00007 	mov	r0, r7
    9b84:	e1a0e00f 	mov	lr, pc
    9b88:	e12fff15 	bx	r5
    9b8c:	e2505000 	subs	r5, r0, #0
    9b90:	caffffc3 	bgt	9aa4 <__sfvwrite_r+0x2e8>
    9b94:	eaffffa1 	b	9a20 <__sfvwrite_r+0x264>
    9b98:	e599a000 	ldr	sl, [r9]
    9b9c:	e5998004 	ldr	r8, [r9, #4]
    9ba0:	e3a00000 	mov	r0, #0
    9ba4:	e2899008 	add	r9, r9, #8
    9ba8:	eaffff41 	b	98b4 <__sfvwrite_r+0xf8>
    9bac:	e59d2004 	ldr	r2, [sp, #4]
    9bb0:	e1520003 	cmp	r2, r3
    9bb4:	ba000008 	blt	9bdc <__sfvwrite_r+0x420>
    9bb8:	e5946028 	ldr	r6, [r4, #40]	; 0x28
    9bbc:	e1a0200a 	mov	r2, sl
    9bc0:	e5941020 	ldr	r1, [r4, #32]
    9bc4:	e1a00007 	mov	r0, r7
    9bc8:	e1a0e00f 	mov	lr, pc
    9bcc:	e12fff16 	bx	r6
    9bd0:	e2506000 	subs	r6, r0, #0
    9bd4:	caffff5e 	bgt	9954 <__sfvwrite_r+0x198>
    9bd8:	eaffff90 	b	9a20 <__sfvwrite_r+0x264>
    9bdc:	e59d2004 	ldr	r2, [sp, #4]
    9be0:	e1a0100a 	mov	r1, sl
    9be4:	eb000085 	bl	9e00 <memmove>
    9be8:	e59d2004 	ldr	r2, [sp, #4]
    9bec:	e5943008 	ldr	r3, [r4, #8]
    9bf0:	e0433002 	sub	r3, r3, r2
    9bf4:	e5843008 	str	r3, [r4, #8]
    9bf8:	e5943000 	ldr	r3, [r4]
    9bfc:	e0833002 	add	r3, r3, r2
    9c00:	e5843000 	str	r3, [r4]
    9c04:	e1a06002 	mov	r6, r2
    9c08:	eaffff51 	b	9954 <__sfvwrite_r+0x198>
    9c0c:	7ffffc00 	.word	0x7ffffc00

00009c10 <_lseek_r>:
    9c10:	e92d4070 	push	{r4, r5, r6, lr}
    9c14:	e1a05000 	mov	r5, r0
    9c18:	e1a00001 	mov	r0, r1
    9c1c:	e1a01002 	mov	r1, r2
    9c20:	e3a02000 	mov	r2, #0
    9c24:	e59f4024 	ldr	r4, [pc, #36]	; 9c50 <_lseek_r+0x40>
    9c28:	e5842000 	str	r2, [r4]
    9c2c:	e1a02003 	mov	r2, r3
    9c30:	eb00022a 	bl	a4e0 <_lseek>
    9c34:	e3700001 	cmn	r0, #1
    9c38:	1a000002 	bne	9c48 <_lseek_r+0x38>
    9c3c:	e5943000 	ldr	r3, [r4]
    9c40:	e3530000 	cmp	r3, #0
    9c44:	15853000 	strne	r3, [r5]
    9c48:	e8bd4070 	pop	{r4, r5, r6, lr}
    9c4c:	e12fff1e 	bx	lr
    9c50:	0001a6d8 	.word	0x0001a6d8

00009c54 <__swhatbuf_r>:
    9c54:	e92d4070 	push	{r4, r5, r6, lr}
    9c58:	e1a06001 	mov	r6, r1
    9c5c:	e1d110fe 	ldrsh	r1, [r1, #14]
    9c60:	e3510000 	cmp	r1, #0
    9c64:	e24dd040 	sub	sp, sp, #64	; 0x40
    9c68:	e1a04002 	mov	r4, r2
    9c6c:	e1a05003 	mov	r5, r3
    9c70:	aa00000b 	bge	9ca4 <__swhatbuf_r+0x50>
    9c74:	e3a03000 	mov	r3, #0
    9c78:	e5853000 	str	r3, [r5]
    9c7c:	e1d630bc 	ldrh	r3, [r6, #12]
    9c80:	e3130080 	tst	r3, #128	; 0x80
    9c84:	13a03040 	movne	r3, #64	; 0x40
    9c88:	1a000000 	bne	9c90 <__swhatbuf_r+0x3c>
    9c8c:	e3a03b01 	mov	r3, #1024	; 0x400
    9c90:	e3a00000 	mov	r0, #0
    9c94:	e5843000 	str	r3, [r4]
    9c98:	e28dd040 	add	sp, sp, #64	; 0x40
    9c9c:	e8bd4070 	pop	{r4, r5, r6, lr}
    9ca0:	e12fff1e 	bx	lr
    9ca4:	e28d2004 	add	r2, sp, #4
    9ca8:	eb00013d 	bl	a1a4 <_fstat_r>
    9cac:	e3500000 	cmp	r0, #0
    9cb0:	baffffef 	blt	9c74 <__swhatbuf_r+0x20>
    9cb4:	e59d2008 	ldr	r2, [sp, #8]
    9cb8:	e2022a0f 	and	r2, r2, #61440	; 0xf000
    9cbc:	e2423a02 	sub	r3, r2, #8192	; 0x2000
    9cc0:	e2732000 	rsbs	r2, r3, #0
    9cc4:	e0a22003 	adc	r2, r2, r3
    9cc8:	e5852000 	str	r2, [r5]
    9ccc:	eaffffee 	b	9c8c <__swhatbuf_r+0x38>

00009cd0 <__smakebuf_r>:
    9cd0:	e1d130bc 	ldrh	r3, [r1, #12]
    9cd4:	e3130002 	tst	r3, #2
    9cd8:	e92d4073 	push	{r0, r1, r4, r5, r6, lr}
    9cdc:	e1a04001 	mov	r4, r1
    9ce0:	0a000007 	beq	9d04 <__smakebuf_r+0x34>
    9ce4:	e2843047 	add	r3, r4, #71	; 0x47
    9ce8:	e5843000 	str	r3, [r4]
    9cec:	e5843010 	str	r3, [r4, #16]
    9cf0:	e3a03001 	mov	r3, #1
    9cf4:	e5843014 	str	r3, [r4, #20]
    9cf8:	e28dd008 	add	sp, sp, #8
    9cfc:	e8bd4070 	pop	{r4, r5, r6, lr}
    9d00:	e12fff1e 	bx	lr
    9d04:	e28d3004 	add	r3, sp, #4
    9d08:	e1a0200d 	mov	r2, sp
    9d0c:	e1a05000 	mov	r5, r0
    9d10:	ebffffcf 	bl	9c54 <__swhatbuf_r>
    9d14:	e59d1000 	ldr	r1, [sp]
    9d18:	e1a06000 	mov	r6, r0
    9d1c:	e1a00005 	mov	r0, r5
    9d20:	ebfffa3a 	bl	8610 <_malloc_r>
    9d24:	e3500000 	cmp	r0, #0
    9d28:	1a000006 	bne	9d48 <__smakebuf_r+0x78>
    9d2c:	e1d430fc 	ldrsh	r3, [r4, #12]
    9d30:	e3130c02 	tst	r3, #512	; 0x200
    9d34:	1affffef 	bne	9cf8 <__smakebuf_r+0x28>
    9d38:	e3c33003 	bic	r3, r3, #3
    9d3c:	e3833002 	orr	r3, r3, #2
    9d40:	e1c430bc 	strh	r3, [r4, #12]
    9d44:	eaffffe6 	b	9ce4 <__smakebuf_r+0x14>
    9d48:	e59f3058 	ldr	r3, [pc, #88]	; 9da8 <__smakebuf_r+0xd8>
    9d4c:	e5853028 	str	r3, [r5, #40]	; 0x28
    9d50:	e1d430bc 	ldrh	r3, [r4, #12]
    9d54:	e3833080 	orr	r3, r3, #128	; 0x80
    9d58:	e1c430bc 	strh	r3, [r4, #12]
    9d5c:	e59d3000 	ldr	r3, [sp]
    9d60:	e5843014 	str	r3, [r4, #20]
    9d64:	e59d3004 	ldr	r3, [sp, #4]
    9d68:	e3530000 	cmp	r3, #0
    9d6c:	e5840000 	str	r0, [r4]
    9d70:	e5840010 	str	r0, [r4, #16]
    9d74:	0a000007 	beq	9d98 <__smakebuf_r+0xc8>
    9d78:	e1d410fe 	ldrsh	r1, [r4, #14]
    9d7c:	e1a00005 	mov	r0, r5
    9d80:	eb000117 	bl	a1e4 <_isatty_r>
    9d84:	e3500000 	cmp	r0, #0
    9d88:	11d430bc 	ldrhne	r3, [r4, #12]
    9d8c:	13c33003 	bicne	r3, r3, #3
    9d90:	13833001 	orrne	r3, r3, #1
    9d94:	11c430bc 	strhne	r3, [r4, #12]
    9d98:	e1d400bc 	ldrh	r0, [r4, #12]
    9d9c:	e1800006 	orr	r0, r0, r6
    9da0:	e1c400bc 	strh	r0, [r4, #12]
    9da4:	eaffffd3 	b	9cf8 <__smakebuf_r+0x28>
    9da8:	0000824c 	.word	0x0000824c

00009dac <memchr>:
    9dac:	e20110ff 	and	r1, r1, #255	; 0xff
    9db0:	e0802002 	add	r2, r0, r2
    9db4:	e1500002 	cmp	r0, r2
    9db8:	e1a03000 	mov	r3, r0
    9dbc:	1a000001 	bne	9dc8 <memchr+0x1c>
    9dc0:	e3a00000 	mov	r0, #0
    9dc4:	e12fff1e 	bx	lr
    9dc8:	e5d3c000 	ldrb	ip, [r3]
    9dcc:	e15c0001 	cmp	ip, r1
    9dd0:	e2800001 	add	r0, r0, #1
    9dd4:	1afffff6 	bne	9db4 <memchr+0x8>
    9dd8:	e1a00003 	mov	r0, r3
    9ddc:	e12fff1e 	bx	lr

00009de0 <memcpy>:
    9de0:	e2403001 	sub	r3, r0, #1
    9de4:	e0812002 	add	r2, r1, r2
    9de8:	e1510002 	cmp	r1, r2
    9dec:	1a000000 	bne	9df4 <memcpy+0x14>
    9df0:	e12fff1e 	bx	lr
    9df4:	e4d1c001 	ldrb	ip, [r1], #1
    9df8:	e5e3c001 	strb	ip, [r3, #1]!
    9dfc:	eafffff9 	b	9de8 <memcpy+0x8>

00009e00 <memmove>:
    9e00:	e1500001 	cmp	r0, r1
    9e04:	e0813002 	add	r3, r1, r2
    9e08:	8a000003 	bhi	9e1c <memmove+0x1c>
    9e0c:	e2402001 	sub	r2, r0, #1
    9e10:	e1510003 	cmp	r1, r3
    9e14:	1a00000a 	bne	9e44 <memmove+0x44>
    9e18:	e12fff1e 	bx	lr
    9e1c:	e1500003 	cmp	r0, r3
    9e20:	30801002 	addcc	r1, r0, r2
    9e24:	30422003 	subcc	r2, r2, r3
    9e28:	2afffff7 	bcs	9e0c <memmove+0xc>
    9e2c:	e1730002 	cmn	r3, r2
    9e30:	1a000000 	bne	9e38 <memmove+0x38>
    9e34:	e12fff1e 	bx	lr
    9e38:	e573c001 	ldrb	ip, [r3, #-1]!
    9e3c:	e561c001 	strb	ip, [r1, #-1]!
    9e40:	eafffff9 	b	9e2c <memmove+0x2c>
    9e44:	e4d1c001 	ldrb	ip, [r1], #1
    9e48:	e5e2c001 	strb	ip, [r2, #1]!
    9e4c:	eaffffef 	b	9e10 <memmove+0x10>

00009e50 <__malloc_lock>:
    9e50:	e12fff1e 	bx	lr

00009e54 <__malloc_unlock>:
    9e54:	e12fff1e 	bx	lr

00009e58 <_free_r>:
    9e58:	e3510000 	cmp	r1, #0
    9e5c:	012fff1e 	bxeq	lr
    9e60:	e5113004 	ldr	r3, [r1, #-4]
    9e64:	e92d4070 	push	{r4, r5, r6, lr}
    9e68:	e3530000 	cmp	r3, #0
    9e6c:	e2414004 	sub	r4, r1, #4
    9e70:	b0844003 	addlt	r4, r4, r3
    9e74:	e1a05000 	mov	r5, r0
    9e78:	ebfffff4 	bl	9e50 <__malloc_lock>
    9e7c:	e59f20e0 	ldr	r2, [pc, #224]	; 9f64 <_free_r+0x10c>
    9e80:	e5923000 	ldr	r3, [r2]
    9e84:	e3530000 	cmp	r3, #0
    9e88:	e1a00002 	mov	r0, r2
    9e8c:	05843004 	streq	r3, [r4, #4]
    9e90:	05824000 	streq	r4, [r2]
    9e94:	0a00000a 	beq	9ec4 <_free_r+0x6c>
    9e98:	e1530004 	cmp	r3, r4
    9e9c:	9a00000d 	bls	9ed8 <_free_r+0x80>
    9ea0:	e5941000 	ldr	r1, [r4]
    9ea4:	e0842001 	add	r2, r4, r1
    9ea8:	e1530002 	cmp	r3, r2
    9eac:	05932000 	ldreq	r2, [r3]
    9eb0:	05933004 	ldreq	r3, [r3, #4]
    9eb4:	00822001 	addeq	r2, r2, r1
    9eb8:	05842000 	streq	r2, [r4]
    9ebc:	e5843004 	str	r3, [r4, #4]
    9ec0:	e5804000 	str	r4, [r0]
    9ec4:	e1a00005 	mov	r0, r5
    9ec8:	ebffffe1 	bl	9e54 <__malloc_unlock>
    9ecc:	e8bd4070 	pop	{r4, r5, r6, lr}
    9ed0:	e12fff1e 	bx	lr
    9ed4:	e1a03002 	mov	r3, r2
    9ed8:	e5932004 	ldr	r2, [r3, #4]
    9edc:	e2921000 	adds	r1, r2, #0
    9ee0:	13a01001 	movne	r1, #1
    9ee4:	e1520004 	cmp	r2, r4
    9ee8:	83a01000 	movhi	r1, #0
    9eec:	e3510000 	cmp	r1, #0
    9ef0:	1afffff7 	bne	9ed4 <_free_r+0x7c>
    9ef4:	e5931000 	ldr	r1, [r3]
    9ef8:	e0830001 	add	r0, r3, r1
    9efc:	e1500004 	cmp	r0, r4
    9f00:	1a00000a 	bne	9f30 <_free_r+0xd8>
    9f04:	e5940000 	ldr	r0, [r4]
    9f08:	e0811000 	add	r1, r1, r0
    9f0c:	e1a00003 	mov	r0, r3
    9f10:	e6801001 	str	r1, [r0], r1
    9f14:	e1520000 	cmp	r2, r0
    9f18:	05920000 	ldreq	r0, [r2]
    9f1c:	05922004 	ldreq	r2, [r2, #4]
    9f20:	00801001 	addeq	r1, r0, r1
    9f24:	05831000 	streq	r1, [r3]
    9f28:	05832004 	streq	r2, [r3, #4]
    9f2c:	eaffffe4 	b	9ec4 <_free_r+0x6c>
    9f30:	83a0300c 	movhi	r3, #12
    9f34:	85853000 	strhi	r3, [r5]
    9f38:	8affffe1 	bhi	9ec4 <_free_r+0x6c>
    9f3c:	e5940000 	ldr	r0, [r4]
    9f40:	e0841000 	add	r1, r4, r0
    9f44:	e1520001 	cmp	r2, r1
    9f48:	05921000 	ldreq	r1, [r2]
    9f4c:	05922004 	ldreq	r2, [r2, #4]
    9f50:	00811000 	addeq	r1, r1, r0
    9f54:	05841000 	streq	r1, [r4]
    9f58:	e5842004 	str	r2, [r4, #4]
    9f5c:	e5834004 	str	r4, [r3, #4]
    9f60:	eaffffd7 	b	9ec4 <_free_r+0x6c>
    9f64:	0001a6cc 	.word	0x0001a6cc

00009f68 <_realloc_r>:
    9f68:	e92d41f0 	push	{r4, r5, r6, r7, r8, lr}
    9f6c:	e2516000 	subs	r6, r1, #0
    9f70:	e1a04002 	mov	r4, r2
    9f74:	1a000005 	bne	9f90 <_realloc_r+0x28>
    9f78:	e1a01002 	mov	r1, r2
    9f7c:	ebfff9a3 	bl	8610 <_malloc_r>
    9f80:	e1a05000 	mov	r5, r0
    9f84:	e1a00005 	mov	r0, r5
    9f88:	e8bd41f0 	pop	{r4, r5, r6, r7, r8, lr}
    9f8c:	e12fff1e 	bx	lr
    9f90:	e3520000 	cmp	r2, #0
    9f94:	1a000002 	bne	9fa4 <_realloc_r+0x3c>
    9f98:	ebffffae 	bl	9e58 <_free_r>
    9f9c:	e1a05004 	mov	r5, r4
    9fa0:	eafffff7 	b	9f84 <_realloc_r+0x1c>
    9fa4:	e1a07000 	mov	r7, r0
    9fa8:	eb00009c 	bl	a220 <_malloc_usable_size_r>
    9fac:	e1540000 	cmp	r4, r0
    9fb0:	91a05006 	movls	r5, r6
    9fb4:	9afffff2 	bls	9f84 <_realloc_r+0x1c>
    9fb8:	e1a01004 	mov	r1, r4
    9fbc:	e1a00007 	mov	r0, r7
    9fc0:	ebfff992 	bl	8610 <_malloc_r>
    9fc4:	e2505000 	subs	r5, r0, #0
    9fc8:	0affffed 	beq	9f84 <_realloc_r+0x1c>
    9fcc:	e1a01006 	mov	r1, r6
    9fd0:	e1a02004 	mov	r2, r4
    9fd4:	ebffff81 	bl	9de0 <memcpy>
    9fd8:	e1a01006 	mov	r1, r6
    9fdc:	e1a00007 	mov	r0, r7
    9fe0:	ebffff9c 	bl	9e58 <_free_r>
    9fe4:	eaffffe6 	b	9f84 <_realloc_r+0x1c>

00009fe8 <_read_r>:
    9fe8:	e92d4070 	push	{r4, r5, r6, lr}
    9fec:	e1a05000 	mov	r5, r0
    9ff0:	e1a00001 	mov	r0, r1
    9ff4:	e1a01002 	mov	r1, r2
    9ff8:	e3a02000 	mov	r2, #0
    9ffc:	e59f4024 	ldr	r4, [pc, #36]	; a028 <_read_r+0x40>
    a000:	e5842000 	str	r2, [r4]
    a004:	e1a02003 	mov	r2, r3
    a008:	eb00013a 	bl	a4f8 <_read>
    a00c:	e3700001 	cmn	r0, #1
    a010:	1a000002 	bne	a020 <_read_r+0x38>
    a014:	e5943000 	ldr	r3, [r4]
    a018:	e3530000 	cmp	r3, #0
    a01c:	15853000 	strne	r3, [r5]
    a020:	e8bd4070 	pop	{r4, r5, r6, lr}
    a024:	e12fff1e 	bx	lr
    a028:	0001a6d8 	.word	0x0001a6d8

0000a02c <cleanup_glue>:
    a02c:	e92d4070 	push	{r4, r5, r6, lr}
    a030:	e1a04001 	mov	r4, r1
    a034:	e5911000 	ldr	r1, [r1]
    a038:	e3510000 	cmp	r1, #0
    a03c:	e1a05000 	mov	r5, r0
    a040:	1bfffff9 	blne	a02c <cleanup_glue>
    a044:	e1a01004 	mov	r1, r4
    a048:	e1a00005 	mov	r0, r5
    a04c:	ebffff81 	bl	9e58 <_free_r>
    a050:	e8bd4070 	pop	{r4, r5, r6, lr}
    a054:	e12fff1e 	bx	lr

0000a058 <_reclaim_reent>:
    a058:	e59f3140 	ldr	r3, [pc, #320]	; a1a0 <_reclaim_reent+0x148>
    a05c:	e5933000 	ldr	r3, [r3]
    a060:	e1530000 	cmp	r3, r0
    a064:	012fff1e 	bxeq	lr
    a068:	e5903024 	ldr	r3, [r0, #36]	; 0x24
    a06c:	e3530000 	cmp	r3, #0
    a070:	e92d4070 	push	{r4, r5, r6, lr}
    a074:	e1a04000 	mov	r4, r0
    a078:	0a000014 	beq	a0d0 <_reclaim_reent+0x78>
    a07c:	e593300c 	ldr	r3, [r3, #12]
    a080:	e3530000 	cmp	r3, #0
    a084:	0a00000c 	beq	a0bc <_reclaim_reent+0x64>
    a088:	e3a05000 	mov	r5, #0
    a08c:	e5943024 	ldr	r3, [r4, #36]	; 0x24
    a090:	e593300c 	ldr	r3, [r3, #12]
    a094:	e7931005 	ldr	r1, [r3, r5]
    a098:	e3510000 	cmp	r1, #0
    a09c:	1a000038 	bne	a184 <_reclaim_reent+0x12c>
    a0a0:	e2855004 	add	r5, r5, #4
    a0a4:	e3550080 	cmp	r5, #128	; 0x80
    a0a8:	1afffff7 	bne	a08c <_reclaim_reent+0x34>
    a0ac:	e5943024 	ldr	r3, [r4, #36]	; 0x24
    a0b0:	e1a00004 	mov	r0, r4
    a0b4:	e593100c 	ldr	r1, [r3, #12]
    a0b8:	ebffff66 	bl	9e58 <_free_r>
    a0bc:	e5943024 	ldr	r3, [r4, #36]	; 0x24
    a0c0:	e5931000 	ldr	r1, [r3]
    a0c4:	e3510000 	cmp	r1, #0
    a0c8:	11a00004 	movne	r0, r4
    a0cc:	1bffff61 	blne	9e58 <_free_r>
    a0d0:	e5941014 	ldr	r1, [r4, #20]
    a0d4:	e3510000 	cmp	r1, #0
    a0d8:	11a00004 	movne	r0, r4
    a0dc:	1bffff5d 	blne	9e58 <_free_r>
    a0e0:	e5941024 	ldr	r1, [r4, #36]	; 0x24
    a0e4:	e3510000 	cmp	r1, #0
    a0e8:	11a00004 	movne	r0, r4
    a0ec:	1bffff59 	blne	9e58 <_free_r>
    a0f0:	e5941038 	ldr	r1, [r4, #56]	; 0x38
    a0f4:	e3510000 	cmp	r1, #0
    a0f8:	11a00004 	movne	r0, r4
    a0fc:	1bffff55 	blne	9e58 <_free_r>
    a100:	e594103c 	ldr	r1, [r4, #60]	; 0x3c
    a104:	e3510000 	cmp	r1, #0
    a108:	11a00004 	movne	r0, r4
    a10c:	1bffff51 	blne	9e58 <_free_r>
    a110:	e5941040 	ldr	r1, [r4, #64]	; 0x40
    a114:	e3510000 	cmp	r1, #0
    a118:	11a00004 	movne	r0, r4
    a11c:	1bffff4d 	blne	9e58 <_free_r>
    a120:	e594105c 	ldr	r1, [r4, #92]	; 0x5c
    a124:	e3510000 	cmp	r1, #0
    a128:	11a00004 	movne	r0, r4
    a12c:	1bffff49 	blne	9e58 <_free_r>
    a130:	e5941058 	ldr	r1, [r4, #88]	; 0x58
    a134:	e3510000 	cmp	r1, #0
    a138:	11a00004 	movne	r0, r4
    a13c:	1bffff45 	blne	9e58 <_free_r>
    a140:	e5941034 	ldr	r1, [r4, #52]	; 0x34
    a144:	e3510000 	cmp	r1, #0
    a148:	11a00004 	movne	r0, r4
    a14c:	1bffff41 	blne	9e58 <_free_r>
    a150:	e5943018 	ldr	r3, [r4, #24]
    a154:	e3530000 	cmp	r3, #0
    a158:	0a00000e 	beq	a198 <_reclaim_reent+0x140>
    a15c:	e5943028 	ldr	r3, [r4, #40]	; 0x28
    a160:	e1a00004 	mov	r0, r4
    a164:	e1a0e00f 	mov	lr, pc
    a168:	e12fff13 	bx	r3
    a16c:	e5941048 	ldr	r1, [r4, #72]	; 0x48
    a170:	e3510000 	cmp	r1, #0
    a174:	0a000007 	beq	a198 <_reclaim_reent+0x140>
    a178:	e1a00004 	mov	r0, r4
    a17c:	e8bd4070 	pop	{r4, r5, r6, lr}
    a180:	eaffffa9 	b	a02c <cleanup_glue>
    a184:	e5916000 	ldr	r6, [r1]
    a188:	e1a00004 	mov	r0, r4
    a18c:	ebffff31 	bl	9e58 <_free_r>
    a190:	e1a01006 	mov	r1, r6
    a194:	eaffffbf 	b	a098 <_reclaim_reent+0x40>
    a198:	e8bd4070 	pop	{r4, r5, r6, lr}
    a19c:	e12fff1e 	bx	lr
    a1a0:	0001a64c 	.word	0x0001a64c

0000a1a4 <_fstat_r>:
    a1a4:	e3a03000 	mov	r3, #0
    a1a8:	e92d4070 	push	{r4, r5, r6, lr}
    a1ac:	e59f402c 	ldr	r4, [pc, #44]	; a1e0 <_fstat_r+0x3c>
    a1b0:	e1a05000 	mov	r5, r0
    a1b4:	e1a00001 	mov	r0, r1
    a1b8:	e1a01002 	mov	r1, r2
    a1bc:	e5843000 	str	r3, [r4]
    a1c0:	eb0000ba 	bl	a4b0 <_fstat>
    a1c4:	e3700001 	cmn	r0, #1
    a1c8:	1a000002 	bne	a1d8 <_fstat_r+0x34>
    a1cc:	e5943000 	ldr	r3, [r4]
    a1d0:	e3530000 	cmp	r3, #0
    a1d4:	15853000 	strne	r3, [r5]
    a1d8:	e8bd4070 	pop	{r4, r5, r6, lr}
    a1dc:	e12fff1e 	bx	lr
    a1e0:	0001a6d8 	.word	0x0001a6d8

0000a1e4 <_isatty_r>:
    a1e4:	e3a03000 	mov	r3, #0
    a1e8:	e92d4070 	push	{r4, r5, r6, lr}
    a1ec:	e59f4028 	ldr	r4, [pc, #40]	; a21c <_isatty_r+0x38>
    a1f0:	e1a05000 	mov	r5, r0
    a1f4:	e1a00001 	mov	r0, r1
    a1f8:	e5843000 	str	r3, [r4]
    a1fc:	eb0000b1 	bl	a4c8 <_isatty>
    a200:	e3700001 	cmn	r0, #1
    a204:	1a000002 	bne	a214 <_isatty_r+0x30>
    a208:	e5943000 	ldr	r3, [r4]
    a20c:	e3530000 	cmp	r3, #0
    a210:	15853000 	strne	r3, [r5]
    a214:	e8bd4070 	pop	{r4, r5, r6, lr}
    a218:	e12fff1e 	bx	lr
    a21c:	0001a6d8 	.word	0x0001a6d8

0000a220 <_malloc_usable_size_r>:
    a220:	e5110004 	ldr	r0, [r1, #-4]
    a224:	e3500000 	cmp	r0, #0
    a228:	e2400004 	sub	r0, r0, #4
    a22c:	b7913000 	ldrlt	r3, [r1, r0]
    a230:	b0800003 	addlt	r0, r0, r3
    a234:	e12fff1e 	bx	lr

0000a238 <__udivsi3>:
    a238:	e2512001 	subs	r2, r1, #1
    a23c:	012fff1e 	bxeq	lr
    a240:	3a000036 	bcc	a320 <__udivsi3+0xe8>
    a244:	e1500001 	cmp	r0, r1
    a248:	9a000022 	bls	a2d8 <__udivsi3+0xa0>
    a24c:	e1110002 	tst	r1, r2
    a250:	0a000023 	beq	a2e4 <__udivsi3+0xac>
    a254:	e311020e 	tst	r1, #-536870912	; 0xe0000000
    a258:	01a01181 	lsleq	r1, r1, #3
    a25c:	03a03008 	moveq	r3, #8
    a260:	13a03001 	movne	r3, #1
    a264:	e3510201 	cmp	r1, #268435456	; 0x10000000
    a268:	31510000 	cmpcc	r1, r0
    a26c:	31a01201 	lslcc	r1, r1, #4
    a270:	31a03203 	lslcc	r3, r3, #4
    a274:	3afffffa 	bcc	a264 <__udivsi3+0x2c>
    a278:	e3510102 	cmp	r1, #-2147483648	; 0x80000000
    a27c:	31510000 	cmpcc	r1, r0
    a280:	31a01081 	lslcc	r1, r1, #1
    a284:	31a03083 	lslcc	r3, r3, #1
    a288:	3afffffa 	bcc	a278 <__udivsi3+0x40>
    a28c:	e3a02000 	mov	r2, #0
    a290:	e1500001 	cmp	r0, r1
    a294:	20400001 	subcs	r0, r0, r1
    a298:	21822003 	orrcs	r2, r2, r3
    a29c:	e15000a1 	cmp	r0, r1, lsr #1
    a2a0:	204000a1 	subcs	r0, r0, r1, lsr #1
    a2a4:	218220a3 	orrcs	r2, r2, r3, lsr #1
    a2a8:	e1500121 	cmp	r0, r1, lsr #2
    a2ac:	20400121 	subcs	r0, r0, r1, lsr #2
    a2b0:	21822123 	orrcs	r2, r2, r3, lsr #2
    a2b4:	e15001a1 	cmp	r0, r1, lsr #3
    a2b8:	204001a1 	subcs	r0, r0, r1, lsr #3
    a2bc:	218221a3 	orrcs	r2, r2, r3, lsr #3
    a2c0:	e3500000 	cmp	r0, #0
    a2c4:	11b03223 	lsrsne	r3, r3, #4
    a2c8:	11a01221 	lsrne	r1, r1, #4
    a2cc:	1affffef 	bne	a290 <__udivsi3+0x58>
    a2d0:	e1a00002 	mov	r0, r2
    a2d4:	e12fff1e 	bx	lr
    a2d8:	03a00001 	moveq	r0, #1
    a2dc:	13a00000 	movne	r0, #0
    a2e0:	e12fff1e 	bx	lr
    a2e4:	e3510801 	cmp	r1, #65536	; 0x10000
    a2e8:	21a01821 	lsrcs	r1, r1, #16
    a2ec:	23a02010 	movcs	r2, #16
    a2f0:	33a02000 	movcc	r2, #0
    a2f4:	e3510c01 	cmp	r1, #256	; 0x100
    a2f8:	21a01421 	lsrcs	r1, r1, #8
    a2fc:	22822008 	addcs	r2, r2, #8
    a300:	e3510010 	cmp	r1, #16
    a304:	21a01221 	lsrcs	r1, r1, #4
    a308:	22822004 	addcs	r2, r2, #4
    a30c:	e3510004 	cmp	r1, #4
    a310:	82822003 	addhi	r2, r2, #3
    a314:	908220a1 	addls	r2, r2, r1, lsr #1
    a318:	e1a00230 	lsr	r0, r0, r2
    a31c:	e12fff1e 	bx	lr
    a320:	e3500000 	cmp	r0, #0
    a324:	13e00000 	mvnne	r0, #0
    a328:	ea000059 	b	a494 <__aeabi_idiv0>

0000a32c <__aeabi_uidivmod>:
    a32c:	e3510000 	cmp	r1, #0
    a330:	0afffffa 	beq	a320 <__udivsi3+0xe8>
    a334:	e92d4003 	push	{r0, r1, lr}
    a338:	ebffffbe 	bl	a238 <__udivsi3>
    a33c:	e8bd4006 	pop	{r1, r2, lr}
    a340:	e0030092 	mul	r3, r2, r0
    a344:	e0411003 	sub	r1, r1, r3
    a348:	e12fff1e 	bx	lr

0000a34c <__divsi3>:
    a34c:	e3510000 	cmp	r1, #0
    a350:	0a000043 	beq	a464 <.divsi3_skip_div0_test+0x110>

0000a354 <.divsi3_skip_div0_test>:
    a354:	e020c001 	eor	ip, r0, r1
    a358:	42611000 	rsbmi	r1, r1, #0
    a35c:	e2512001 	subs	r2, r1, #1
    a360:	0a000027 	beq	a404 <.divsi3_skip_div0_test+0xb0>
    a364:	e1b03000 	movs	r3, r0
    a368:	42603000 	rsbmi	r3, r0, #0
    a36c:	e1530001 	cmp	r3, r1
    a370:	9a000026 	bls	a410 <.divsi3_skip_div0_test+0xbc>
    a374:	e1110002 	tst	r1, r2
    a378:	0a000028 	beq	a420 <.divsi3_skip_div0_test+0xcc>
    a37c:	e311020e 	tst	r1, #-536870912	; 0xe0000000
    a380:	01a01181 	lsleq	r1, r1, #3
    a384:	03a02008 	moveq	r2, #8
    a388:	13a02001 	movne	r2, #1
    a38c:	e3510201 	cmp	r1, #268435456	; 0x10000000
    a390:	31510003 	cmpcc	r1, r3
    a394:	31a01201 	lslcc	r1, r1, #4
    a398:	31a02202 	lslcc	r2, r2, #4
    a39c:	3afffffa 	bcc	a38c <.divsi3_skip_div0_test+0x38>
    a3a0:	e3510102 	cmp	r1, #-2147483648	; 0x80000000
    a3a4:	31510003 	cmpcc	r1, r3
    a3a8:	31a01081 	lslcc	r1, r1, #1
    a3ac:	31a02082 	lslcc	r2, r2, #1
    a3b0:	3afffffa 	bcc	a3a0 <.divsi3_skip_div0_test+0x4c>
    a3b4:	e3a00000 	mov	r0, #0
    a3b8:	e1530001 	cmp	r3, r1
    a3bc:	20433001 	subcs	r3, r3, r1
    a3c0:	21800002 	orrcs	r0, r0, r2
    a3c4:	e15300a1 	cmp	r3, r1, lsr #1
    a3c8:	204330a1 	subcs	r3, r3, r1, lsr #1
    a3cc:	218000a2 	orrcs	r0, r0, r2, lsr #1
    a3d0:	e1530121 	cmp	r3, r1, lsr #2
    a3d4:	20433121 	subcs	r3, r3, r1, lsr #2
    a3d8:	21800122 	orrcs	r0, r0, r2, lsr #2
    a3dc:	e15301a1 	cmp	r3, r1, lsr #3
    a3e0:	204331a1 	subcs	r3, r3, r1, lsr #3
    a3e4:	218001a2 	orrcs	r0, r0, r2, lsr #3
    a3e8:	e3530000 	cmp	r3, #0
    a3ec:	11b02222 	lsrsne	r2, r2, #4
    a3f0:	11a01221 	lsrne	r1, r1, #4
    a3f4:	1affffef 	bne	a3b8 <.divsi3_skip_div0_test+0x64>
    a3f8:	e35c0000 	cmp	ip, #0
    a3fc:	42600000 	rsbmi	r0, r0, #0
    a400:	e12fff1e 	bx	lr
    a404:	e13c0000 	teq	ip, r0
    a408:	42600000 	rsbmi	r0, r0, #0
    a40c:	e12fff1e 	bx	lr
    a410:	33a00000 	movcc	r0, #0
    a414:	01a00fcc 	asreq	r0, ip, #31
    a418:	03800001 	orreq	r0, r0, #1
    a41c:	e12fff1e 	bx	lr
    a420:	e3510801 	cmp	r1, #65536	; 0x10000
    a424:	21a01821 	lsrcs	r1, r1, #16
    a428:	23a02010 	movcs	r2, #16
    a42c:	33a02000 	movcc	r2, #0
    a430:	e3510c01 	cmp	r1, #256	; 0x100
    a434:	21a01421 	lsrcs	r1, r1, #8
    a438:	22822008 	addcs	r2, r2, #8
    a43c:	e3510010 	cmp	r1, #16
    a440:	21a01221 	lsrcs	r1, r1, #4
    a444:	22822004 	addcs	r2, r2, #4
    a448:	e3510004 	cmp	r1, #4
    a44c:	82822003 	addhi	r2, r2, #3
    a450:	908220a1 	addls	r2, r2, r1, lsr #1
    a454:	e35c0000 	cmp	ip, #0
    a458:	e1a00233 	lsr	r0, r3, r2
    a45c:	42600000 	rsbmi	r0, r0, #0
    a460:	e12fff1e 	bx	lr
    a464:	e3500000 	cmp	r0, #0
    a468:	c3e00102 	mvngt	r0, #-2147483648	; 0x80000000
    a46c:	b3a00102 	movlt	r0, #-2147483648	; 0x80000000
    a470:	ea000007 	b	a494 <__aeabi_idiv0>

0000a474 <__aeabi_idivmod>:
    a474:	e3510000 	cmp	r1, #0
    a478:	0afffff9 	beq	a464 <.divsi3_skip_div0_test+0x110>
    a47c:	e92d4003 	push	{r0, r1, lr}
    a480:	ebffffb3 	bl	a354 <.divsi3_skip_div0_test>
    a484:	e8bd4006 	pop	{r1, r2, lr}
    a488:	e0030092 	mul	r3, r2, r0
    a48c:	e0411003 	sub	r1, r1, r3
    a490:	e12fff1e 	bx	lr

0000a494 <__aeabi_idiv0>:
    a494:	e12fff1e 	bx	lr

0000a498 <_close>:
    a498:	e3a02058 	mov	r2, #88	; 0x58
    a49c:	e59f3008 	ldr	r3, [pc, #8]	; a4ac <_close+0x14>
    a4a0:	e3e00000 	mvn	r0, #0
    a4a4:	e5832000 	str	r2, [r3]
    a4a8:	e12fff1e 	bx	lr
    a4ac:	0001a6d8 	.word	0x0001a6d8

0000a4b0 <_fstat>:
    a4b0:	e3a02058 	mov	r2, #88	; 0x58
    a4b4:	e59f3008 	ldr	r3, [pc, #8]	; a4c4 <_fstat+0x14>
    a4b8:	e3e00000 	mvn	r0, #0
    a4bc:	e5832000 	str	r2, [r3]
    a4c0:	e12fff1e 	bx	lr
    a4c4:	0001a6d8 	.word	0x0001a6d8

0000a4c8 <_isatty>:
    a4c8:	e3a02058 	mov	r2, #88	; 0x58
    a4cc:	e59f3008 	ldr	r3, [pc, #8]	; a4dc <_isatty+0x14>
    a4d0:	e3a00000 	mov	r0, #0
    a4d4:	e5832000 	str	r2, [r3]
    a4d8:	e12fff1e 	bx	lr
    a4dc:	0001a6d8 	.word	0x0001a6d8

0000a4e0 <_lseek>:
    a4e0:	e3a02058 	mov	r2, #88	; 0x58
    a4e4:	e59f3008 	ldr	r3, [pc, #8]	; a4f4 <_lseek+0x14>
    a4e8:	e3e00000 	mvn	r0, #0
    a4ec:	e5832000 	str	r2, [r3]
    a4f0:	e12fff1e 	bx	lr
    a4f4:	0001a6d8 	.word	0x0001a6d8

0000a4f8 <_read>:
    a4f8:	e3a02058 	mov	r2, #88	; 0x58
    a4fc:	e59f3008 	ldr	r3, [pc, #8]	; a50c <_read+0x14>
    a500:	e3e00000 	mvn	r0, #0
    a504:	e5832000 	str	r2, [r3]
    a508:	e12fff1e 	bx	lr
    a50c:	0001a6d8 	.word	0x0001a6d8

0000a510 <_sbrk>:
    a510:	e1a02000 	mov	r2, r0
    a514:	e59f301c 	ldr	r3, [pc, #28]	; a538 <_sbrk+0x28>
    a518:	e5931000 	ldr	r1, [r3]
    a51c:	e3510000 	cmp	r1, #0
    a520:	059f1014 	ldreq	r1, [pc, #20]	; a53c <_sbrk+0x2c>
    a524:	05831000 	streq	r1, [r3]
    a528:	e5930000 	ldr	r0, [r3]
    a52c:	e0802002 	add	r2, r0, r2
    a530:	e5832000 	str	r2, [r3]
    a534:	e12fff1e 	bx	lr
    a538:	0001a6d4 	.word	0x0001a6d4
    a53c:	0001a6dc 	.word	0x0001a6dc

0000a540 <_write>:
    a540:	e3a02058 	mov	r2, #88	; 0x58
    a544:	e59f3008 	ldr	r3, [pc, #8]	; a554 <_write+0x14>
    a548:	e3e00000 	mvn	r0, #0
    a54c:	e5832000 	str	r2, [r3]
    a550:	e12fff1e 	bx	lr
    a554:	0001a6d8 	.word	0x0001a6d8

Disassembly of section .fini:

0000a558 <_fini>:
    a558:	e1a0c00d 	mov	ip, sp
    a55c:	e92ddff8 	push	{r3, r4, r5, r6, r7, r8, r9, sl, fp, ip, lr, pc}
    a560:	e24cb004 	sub	fp, ip, #4
    a564:	e24bd028 	sub	sp, fp, #40	; 0x28
    a568:	e89d6ff0 	ldm	sp, {r4, r5, r6, r7, r8, r9, sl, fp, sp, lr}
    a56c:	e12fff1e 	bx	lr
